
bin\Debug\agv.elf:     file format elf32-avr

Sections:
Idx Name          Size      VMA       LMA       File off  Algn
  0 .data         00000002  00800200  0000330c  000033c0  2**0
                  CONTENTS, ALLOC, LOAD, DATA
  1 .text         0000330c  00000000  00000000  000000b4  2**1
                  CONTENTS, ALLOC, LOAD, READONLY, CODE
  2 .bss          0000000d  00800202  00800202  000033c2  2**0
                  ALLOC
  3 .fuse         00000003  00820000  00820000  000033c2  2**0
                  CONTENTS, ALLOC, LOAD, DATA
  4 .comment      00000012  00000000  00000000  000033c5  2**0
                  CONTENTS, READONLY
  5 .note.gnu.avr.deviceinfo 00000040  00000000  00000000  000033d8  2**2
                  CONTENTS, READONLY, OCTETS
  6 .debug_aranges 00000138  00000000  00000000  00003418  2**3
                  CONTENTS, READONLY, DEBUGGING, OCTETS
  7 .debug_info   00001ded  00000000  00000000  00003550  2**0
                  CONTENTS, READONLY, DEBUGGING, OCTETS
  8 .debug_abbrev 000011e0  00000000  00000000  0000533d  2**0
                  CONTENTS, READONLY, DEBUGGING, OCTETS
  9 .debug_line   00001b5e  00000000  00000000  0000651d  2**0
                  CONTENTS, READONLY, DEBUGGING, OCTETS
 10 .debug_frame  0000049c  00000000  00000000  0000807c  2**2
                  CONTENTS, READONLY, DEBUGGING, OCTETS
 11 .debug_str    0000083c  00000000  00000000  00008518  2**0
                  CONTENTS, READONLY, DEBUGGING, OCTETS
 12 .debug_line_str 00000217  00000000  00000000  00008d54  2**0
                  CONTENTS, READONLY, DEBUGGING, OCTETS

Disassembly of section .text:

00000000 <__vectors>:
       0:	0c 94 72 00 	jmp	0xe4	; 0xe4 <__ctors_end>
       4:	0c 94 93 00 	jmp	0x126	; 0x126 <__bad_interrupt>
       8:	0c 94 93 00 	jmp	0x126	; 0x126 <__bad_interrupt>
       c:	0c 94 93 00 	jmp	0x126	; 0x126 <__bad_interrupt>
      10:	0c 94 93 00 	jmp	0x126	; 0x126 <__bad_interrupt>
      14:	0c 94 93 00 	jmp	0x126	; 0x126 <__bad_interrupt>
      18:	0c 94 93 00 	jmp	0x126	; 0x126 <__bad_interrupt>
      1c:	0c 94 93 00 	jmp	0x126	; 0x126 <__bad_interrupt>
      20:	0c 94 93 00 	jmp	0x126	; 0x126 <__bad_interrupt>
      24:	0c 94 93 00 	jmp	0x126	; 0x126 <__bad_interrupt>
      28:	0c 94 93 00 	jmp	0x126	; 0x126 <__bad_interrupt>
      2c:	0c 94 93 00 	jmp	0x126	; 0x126 <__bad_interrupt>
      30:	0c 94 93 00 	jmp	0x126	; 0x126 <__bad_interrupt>
      34:	0c 94 93 00 	jmp	0x126	; 0x126 <__bad_interrupt>
      38:	0c 94 93 00 	jmp	0x126	; 0x126 <__bad_interrupt>
      3c:	0c 94 93 00 	jmp	0x126	; 0x126 <__bad_interrupt>
      40:	0c 94 93 00 	jmp	0x126	; 0x126 <__bad_interrupt>
      44:	0c 94 93 00 	jmp	0x126	; 0x126 <__bad_interrupt>
      48:	0c 94 93 00 	jmp	0x126	; 0x126 <__bad_interrupt>
      4c:	0c 94 93 00 	jmp	0x126	; 0x126 <__bad_interrupt>
      50:	0c 94 93 00 	jmp	0x126	; 0x126 <__bad_interrupt>
      54:	0c 94 5e 06 	jmp	0xcbc	; 0xcbc <__vector_21>
      58:	0c 94 93 00 	jmp	0x126	; 0x126 <__bad_interrupt>
      5c:	0c 94 93 00 	jmp	0x126	; 0x126 <__bad_interrupt>
      60:	0c 94 93 00 	jmp	0x126	; 0x126 <__bad_interrupt>
      64:	0c 94 93 00 	jmp	0x126	; 0x126 <__bad_interrupt>
      68:	0c 94 93 00 	jmp	0x126	; 0x126 <__bad_interrupt>
      6c:	0c 94 93 00 	jmp	0x126	; 0x126 <__bad_interrupt>
      70:	0c 94 93 00 	jmp	0x126	; 0x126 <__bad_interrupt>
      74:	0c 94 93 00 	jmp	0x126	; 0x126 <__bad_interrupt>
      78:	0c 94 93 00 	jmp	0x126	; 0x126 <__bad_interrupt>
      7c:	0c 94 93 00 	jmp	0x126	; 0x126 <__bad_interrupt>
      80:	0c 94 93 00 	jmp	0x126	; 0x126 <__bad_interrupt>
      84:	0c 94 93 00 	jmp	0x126	; 0x126 <__bad_interrupt>
      88:	0c 94 93 00 	jmp	0x126	; 0x126 <__bad_interrupt>
      8c:	0c 94 93 00 	jmp	0x126	; 0x126 <__bad_interrupt>
      90:	0c 94 93 00 	jmp	0x126	; 0x126 <__bad_interrupt>
      94:	0c 94 93 00 	jmp	0x126	; 0x126 <__bad_interrupt>
      98:	0c 94 93 00 	jmp	0x126	; 0x126 <__bad_interrupt>
      9c:	0c 94 93 00 	jmp	0x126	; 0x126 <__bad_interrupt>
      a0:	0c 94 93 00 	jmp	0x126	; 0x126 <__bad_interrupt>
      a4:	0c 94 93 00 	jmp	0x126	; 0x126 <__bad_interrupt>
      a8:	0c 94 93 00 	jmp	0x126	; 0x126 <__bad_interrupt>
      ac:	0c 94 93 00 	jmp	0x126	; 0x126 <__bad_interrupt>
      b0:	0c 94 93 00 	jmp	0x126	; 0x126 <__bad_interrupt>
      b4:	0c 94 93 00 	jmp	0x126	; 0x126 <__bad_interrupt>
      b8:	0c 94 93 00 	jmp	0x126	; 0x126 <__bad_interrupt>
      bc:	0c 94 93 00 	jmp	0x126	; 0x126 <__bad_interrupt>
      c0:	0c 94 93 00 	jmp	0x126	; 0x126 <__bad_interrupt>
      c4:	0c 94 93 00 	jmp	0x126	; 0x126 <__bad_interrupt>
      c8:	0c 94 93 00 	jmp	0x126	; 0x126 <__bad_interrupt>
      cc:	0c 94 93 00 	jmp	0x126	; 0x126 <__bad_interrupt>
      d0:	0c 94 93 00 	jmp	0x126	; 0x126 <__bad_interrupt>
      d4:	0c 94 93 00 	jmp	0x126	; 0x126 <__bad_interrupt>
      d8:	0c 94 93 00 	jmp	0x126	; 0x126 <__bad_interrupt>
      dc:	0c 94 93 00 	jmp	0x126	; 0x126 <__bad_interrupt>
      e0:	0c 94 93 00 	jmp	0x126	; 0x126 <__bad_interrupt>

000000e4 <__ctors_end>:
      e4:	11 24       	eor	r1, r1
      e6:	1f be       	out	0x3f, r1	; 63
      e8:	cf ef       	ldi	r28, 0xFF	; 255
      ea:	d1 e2       	ldi	r29, 0x21	; 33
      ec:	de bf       	out	0x3e, r29	; 62
      ee:	cd bf       	out	0x3d, r28	; 61
      f0:	00 e0       	ldi	r16, 0x00	; 0
      f2:	0c bf       	out	0x3c, r16	; 60

000000f4 <__do_copy_data>:
      f4:	12 e0       	ldi	r17, 0x02	; 2

000000f6 <.Loc.1>:
      f6:	a0 e0       	ldi	r26, 0x00	; 0

000000f8 <.Loc.2>:
      f8:	b2 e0       	ldi	r27, 0x02	; 2

000000fa <.Loc.3>:
      fa:	ec e0       	ldi	r30, 0x0C	; 12

000000fc <.Loc.4>:
      fc:	f3 e3       	ldi	r31, 0x33	; 51

000000fe <.Loc.5>:
      fe:	00 e0       	ldi	r16, 0x00	; 0

00000100 <.Loc.6>:
     100:	0b bf       	out	0x3b, r16	; 59

00000102 <.Loc.7>:
     102:	02 c0       	rjmp	.+4      	; 0x108 <.L__do_copy_data_start>

00000104 <.L__do_copy_data_loop>:
     104:	07 90       	elpm	r0, Z+

00000106 <.Loc.9>:
     106:	0d 92       	st	X+, r0

00000108 <.L__do_copy_data_start>:
     108:	a2 30       	cpi	r26, 0x02	; 2

0000010a <.Loc.11>:
     10a:	b1 07       	cpc	r27, r17

0000010c <.Loc.12>:
     10c:	d9 f7       	brne	.-10     	; 0x104 <.L__do_copy_data_loop>

0000010e <__do_clear_bss>:
     10e:	22 e0       	ldi	r18, 0x02	; 2

00000110 <.Loc.1>:
     110:	a2 e0       	ldi	r26, 0x02	; 2

00000112 <.Loc.2>:
     112:	b2 e0       	ldi	r27, 0x02	; 2

00000114 <.Loc.3>:
     114:	01 c0       	rjmp	.+2      	; 0x118 <.Loc.5>

00000116 <.Loc.4>:
     116:	1d 92       	st	X+, r1

00000118 <.Loc.5>:
     118:	af 30       	cpi	r26, 0x0F	; 15

0000011a <.Loc.6>:
     11a:	b2 07       	cpc	r27, r18

0000011c <.Loc.7>:
     11c:	e1 f7       	brne	.-8      	; 0x116 <.Loc.4>

0000011e <L0^A>:
     11e:	0e 94 eb 06 	call	0xdd6	; 0xdd6 <main>
     122:	0c 94 84 19 	jmp	0x3308	; 0x3308 <_exit>

00000126 <__bad_interrupt>:
     126:	0c 94 00 00 	jmp	0	; 0x0 <__vectors>

0000012a <init_buzzer>:
#include <avr/io.h>
#include "buzzer.h"

void init_buzzer(void) {
     12a:	cf 93       	push	r28
     12c:	df 93       	push	r29
     12e:	cd b7       	in	r28, 0x3d	; 61
     130:	de b7       	in	r29, 0x3e	; 62

00000132 <.Loc.1>:
    // Stel de buzzer pin in als uitgang
    DDRB |= (1 << BUZZER_PIN);
     132:	84 e2       	ldi	r24, 0x24	; 36
     134:	90 e0       	ldi	r25, 0x00	; 0
     136:	fc 01       	movw	r30, r24
     138:	20 81       	ld	r18, Z
     13a:	84 e2       	ldi	r24, 0x24	; 36
     13c:	90 e0       	ldi	r25, 0x00	; 0

0000013e <.Loc.2>:
     13e:	20 62       	ori	r18, 0x20	; 32
     140:	fc 01       	movw	r30, r24
     142:	20 83       	st	Z, r18

00000144 <.Loc.3>:
    // Zet de buzzer uit om te beginnen
    PORTB |= (1 << BUZZER_PIN);
     144:	85 e2       	ldi	r24, 0x25	; 37
     146:	90 e0       	ldi	r25, 0x00	; 0
     148:	fc 01       	movw	r30, r24
     14a:	20 81       	ld	r18, Z
     14c:	85 e2       	ldi	r24, 0x25	; 37
     14e:	90 e0       	ldi	r25, 0x00	; 0

00000150 <.Loc.4>:
     150:	20 62       	ori	r18, 0x20	; 32
     152:	fc 01       	movw	r30, r24
     154:	20 83       	st	Z, r18

00000156 <.Loc.5>:
}
     156:	00 00       	nop
     158:	df 91       	pop	r29
     15a:	cf 91       	pop	r28
     15c:	08 95       	ret

0000015e <buzzer_aan>:

void buzzer_aan(void) {
     15e:	cf 93       	push	r28
     160:	df 93       	push	r29
     162:	cd b7       	in	r28, 0x3d	; 61
     164:	de b7       	in	r29, 0x3e	; 62

00000166 <.Loc.7>:
    // Zet de buzzer pin hoog om de buzzer aan te zetten
    PORTB |= (1 << BUZZER_PIN);
     166:	85 e2       	ldi	r24, 0x25	; 37
     168:	90 e0       	ldi	r25, 0x00	; 0
     16a:	fc 01       	movw	r30, r24
     16c:	20 81       	ld	r18, Z
     16e:	85 e2       	ldi	r24, 0x25	; 37
     170:	90 e0       	ldi	r25, 0x00	; 0

00000172 <.Loc.8>:
     172:	20 62       	ori	r18, 0x20	; 32
     174:	fc 01       	movw	r30, r24
     176:	20 83       	st	Z, r18

00000178 <.Loc.9>:
}
     178:	00 00       	nop
     17a:	df 91       	pop	r29
     17c:	cf 91       	pop	r28
     17e:	08 95       	ret

00000180 <buzzer_uit>:

void buzzer_uit(void) {
     180:	cf 93       	push	r28
     182:	df 93       	push	r29
     184:	cd b7       	in	r28, 0x3d	; 61
     186:	de b7       	in	r29, 0x3e	; 62

00000188 <.Loc.11>:
    // Zet de buzzer pin laag om de buzzer uit te zetten
    PORTB &= ~(1 << BUZZER_PIN);
     188:	85 e2       	ldi	r24, 0x25	; 37
     18a:	90 e0       	ldi	r25, 0x00	; 0
     18c:	fc 01       	movw	r30, r24
     18e:	20 81       	ld	r18, Z

00000190 <.Loc.12>:
     190:	85 e2       	ldi	r24, 0x25	; 37
     192:	90 e0       	ldi	r25, 0x00	; 0

00000194 <.Loc.13>:
     194:	2f 7d       	andi	r18, 0xDF	; 223
     196:	fc 01       	movw	r30, r24
     198:	20 83       	st	Z, r18

0000019a <.Loc.14>:
}
     19a:	00 00       	nop
     19c:	df 91       	pop	r29
     19e:	cf 91       	pop	r28
     1a0:	08 95       	ret

000001a2 <buzzer_toggle>:

void buzzer_toggle(void) {
     1a2:	cf 93       	push	r28
     1a4:	df 93       	push	r29
     1a6:	cd b7       	in	r28, 0x3d	; 61
     1a8:	de b7       	in	r29, 0x3e	; 62

000001aa <.Loc.16>:
    // Wissel de huidige toestand van de buzzer pin
    PORTB ^= (1 << BUZZER_PIN);
     1aa:	85 e2       	ldi	r24, 0x25	; 37
     1ac:	90 e0       	ldi	r25, 0x00	; 0
     1ae:	fc 01       	movw	r30, r24
     1b0:	30 81       	ld	r19, Z
     1b2:	85 e2       	ldi	r24, 0x25	; 37
     1b4:	90 e0       	ldi	r25, 0x00	; 0

000001b6 <.Loc.17>:
     1b6:	20 e2       	ldi	r18, 0x20	; 32
     1b8:	23 27       	eor	r18, r19
     1ba:	fc 01       	movw	r30, r24
     1bc:	20 83       	st	Z, r18

000001be <.Loc.18>:
}
     1be:	00 00       	nop
     1c0:	df 91       	pop	r29
     1c2:	cf 91       	pop	r28
     1c4:	08 95       	ret

000001c6 <init_timer_buzzer>:

void init_timer_buzzer(void) {
     1c6:	cf 93       	push	r28
     1c8:	df 93       	push	r29
     1ca:	cd b7       	in	r28, 0x3d	; 61
     1cc:	de b7       	in	r29, 0x3e	; 62

000001ce <.Loc.20>:
    TCCR4A = 0;
     1ce:	80 ea       	ldi	r24, 0xA0	; 160
     1d0:	90 e0       	ldi	r25, 0x00	; 0

000001d2 <.Loc.21>:
     1d2:	fc 01       	movw	r30, r24
     1d4:	10 82       	st	Z, r1

000001d6 <.Loc.22>:
    TCCR4B = (1 << CS42) | (0 << CS41) | (0 << CS40);
     1d6:	81 ea       	ldi	r24, 0xA1	; 161
     1d8:	90 e0       	ldi	r25, 0x00	; 0

000001da <.Loc.23>:
     1da:	24 e0       	ldi	r18, 0x04	; 4
     1dc:	fc 01       	movw	r30, r24
     1de:	20 83       	st	Z, r18

000001e0 <.Loc.24>:
    TCNT4 = 0;  // Reset timer
     1e0:	84 ea       	ldi	r24, 0xA4	; 164
     1e2:	90 e0       	ldi	r25, 0x00	; 0

000001e4 <.Loc.25>:
     1e4:	fc 01       	movw	r30, r24
     1e6:	11 82       	std	Z+1, r1	; 0x01
     1e8:	10 82       	st	Z, r1

000001ea <.Loc.26>:
}
     1ea:	00 00       	nop
     1ec:	df 91       	pop	r29
     1ee:	cf 91       	pop	r28
     1f0:	08 95       	ret

000001f2 <agv_rechtdoor>:
#include <avr/io.h>
#include <util/delay.h>
#include "h_bridge.h"

void agv_rechtdoor(void)
{
     1f2:	cf 93       	push	r28
     1f4:	df 93       	push	r29
     1f6:	cd b7       	in	r28, 0x3d	; 61
     1f8:	de b7       	in	r29, 0x3e	; 62
     1fa:	a2 97       	sbiw	r28, 0x22	; 34
     1fc:	0f b6       	in	r0, 0x3f	; 63
     1fe:	f8 94       	cli
     200:	de bf       	out	0x3e, r29	; 62
     202:	0f be       	out	0x3f, r0	; 63
     204:	cd bf       	out	0x3d, r28	; 61

00000206 <.Loc.1>:
    set_motor_speed(1, 200);
     206:	68 ec       	ldi	r22, 0xC8	; 200
     208:	81 e0       	ldi	r24, 0x01	; 1
     20a:	0e 94 66 05 	call	0xacc	; 0xacc <set_motor_speed>

0000020e <.Loc.2>:
    set_motor_speed(2, 200);
     20e:	68 ec       	ldi	r22, 0xC8	; 200
     210:	82 e0       	ldi	r24, 0x02	; 2
     212:	0e 94 66 05 	call	0xacc	; 0xacc <set_motor_speed>
     216:	80 e0       	ldi	r24, 0x00	; 0
     218:	90 e0       	ldi	r25, 0x00	; 0
     21a:	a8 ec       	ldi	r26, 0xC8	; 200
     21c:	b2 e4       	ldi	r27, 0x42	; 66
     21e:	89 83       	std	Y+1, r24	; 0x01
     220:	9a 83       	std	Y+2, r25	; 0x02
     222:	ab 83       	std	Y+3, r26	; 0x03
     224:	bc 83       	std	Y+4, r27	; 0x04

00000226 <.LBB42>:

	__builtin_avr_delay_cycles(__ticks_dc);

#else
	uint16_t __ticks;
	__tmp = ((F_CPU) / 4e3) * __ms;
     226:	20 e0       	ldi	r18, 0x00	; 0
     228:	30 e0       	ldi	r19, 0x00	; 0
     22a:	4a e7       	ldi	r20, 0x7A	; 122
     22c:	55 e4       	ldi	r21, 0x45	; 69
     22e:	69 81       	ldd	r22, Y+1	; 0x01
     230:	7a 81       	ldd	r23, Y+2	; 0x02
     232:	8b 81       	ldd	r24, Y+3	; 0x03
     234:	9c 81       	ldd	r25, Y+4	; 0x04
     236:	0e 94 17 19 	call	0x322e	; 0x322e <__mulsf3>
     23a:	6b 8b       	std	Y+19, r22	; 0x13
     23c:	7c 8b       	std	Y+20, r23	; 0x14
     23e:	8d 8b       	std	Y+21, r24	; 0x15
     240:	9e 8b       	std	Y+22, r25	; 0x16
     242:	8b 89       	ldd	r24, Y+19	; 0x13
     244:	9c 89       	ldd	r25, Y+20	; 0x14
     246:	ad 89       	ldd	r26, Y+21	; 0x15
     248:	be 89       	ldd	r27, Y+22	; 0x16
     24a:	8d 83       	std	Y+5, r24	; 0x05
     24c:	9e 83       	std	Y+6, r25	; 0x06
     24e:	af 83       	std	Y+7, r26	; 0x07
     250:	b8 87       	std	Y+8, r27	; 0x08

00000252 <.Loc.4>:
	if (__tmp < 1.0)
     252:	20 e0       	ldi	r18, 0x00	; 0
     254:	30 e0       	ldi	r19, 0x00	; 0
     256:	40 e8       	ldi	r20, 0x80	; 128
     258:	5f e3       	ldi	r21, 0x3F	; 63
     25a:	6d 81       	ldd	r22, Y+5	; 0x05
     25c:	7e 81       	ldd	r23, Y+6	; 0x06
     25e:	8f 81       	ldd	r24, Y+7	; 0x07
     260:	98 85       	ldd	r25, Y+8	; 0x08
     262:	0e 94 ba 17 	call	0x2f74	; 0x2f74 <__cmpsf2>
     266:	88 23       	and	r24, r24
     268:	2c f4       	brge	.+10     	; 0x274 <.L12>

0000026a <.Loc.5>:
		__ticks = 1;
     26a:	81 e0       	ldi	r24, 0x01	; 1
     26c:	90 e0       	ldi	r25, 0x00	; 0
     26e:	9a 87       	std	Y+10, r25	; 0x0a
     270:	89 87       	std	Y+9, r24	; 0x09
     272:	55 c0       	rjmp	.+170    	; 0x31e <.L4>

00000274 <.L12>:
	else if (__tmp > 65535)
     274:	20 e0       	ldi	r18, 0x00	; 0
     276:	3f ef       	ldi	r19, 0xFF	; 255
     278:	4f e7       	ldi	r20, 0x7F	; 127
     27a:	57 e4       	ldi	r21, 0x47	; 71
     27c:	6d 81       	ldd	r22, Y+5	; 0x05
     27e:	7e 81       	ldd	r23, Y+6	; 0x06
     280:	8f 81       	ldd	r24, Y+7	; 0x07
     282:	98 85       	ldd	r25, Y+8	; 0x08
     284:	0e 94 12 19 	call	0x3224	; 0x3224 <__gesf2>
     288:	88 23       	and	r24, r24
     28a:	d9 f1       	breq	.+118    	; 0x302 <.L13>
     28c:	d4 f1       	brlt	.+116    	; 0x302 <.L13>

0000028e <.Loc.7>:
	{
		//	__ticks = requested delay in 1/10 ms
		__ticks = (uint16_t) (__ms * 10.0);
     28e:	20 e0       	ldi	r18, 0x00	; 0
     290:	30 e0       	ldi	r19, 0x00	; 0
     292:	40 e2       	ldi	r20, 0x20	; 32
     294:	51 e4       	ldi	r21, 0x41	; 65
     296:	69 81       	ldd	r22, Y+1	; 0x01
     298:	7a 81       	ldd	r23, Y+2	; 0x02
     29a:	8b 81       	ldd	r24, Y+3	; 0x03
     29c:	9c 81       	ldd	r25, Y+4	; 0x04
     29e:	0e 94 17 19 	call	0x322e	; 0x322e <__mulsf3>
     2a2:	6f 8b       	std	Y+23, r22	; 0x17
     2a4:	78 8f       	std	Y+24, r23	; 0x18
     2a6:	89 8f       	std	Y+25, r24	; 0x19
     2a8:	9a 8f       	std	Y+26, r25	; 0x1a
     2aa:	8f 89       	ldd	r24, Y+23	; 0x17
     2ac:	98 8d       	ldd	r25, Y+24	; 0x18
     2ae:	a9 8d       	ldd	r26, Y+25	; 0x19
     2b0:	ba 8d       	ldd	r27, Y+26	; 0x1a
     2b2:	8f 87       	std	Y+15, r24	; 0x0f
     2b4:	98 8b       	std	Y+16, r25	; 0x10
     2b6:	a9 8b       	std	Y+17, r26	; 0x11
     2b8:	ba 8b       	std	Y+18, r27	; 0x12

000002ba <.Loc.8>:
     2ba:	6f 85       	ldd	r22, Y+15	; 0x0f
     2bc:	78 89       	ldd	r23, Y+16	; 0x10
     2be:	89 89       	ldd	r24, Y+17	; 0x11
     2c0:	9a 89       	ldd	r25, Y+18	; 0x12
     2c2:	0e 94 31 18 	call	0x3062	; 0x3062 <__fixunssfsi>
     2c6:	6b 8f       	std	Y+27, r22	; 0x1b
     2c8:	7c 8f       	std	Y+28, r23	; 0x1c
     2ca:	8d 8f       	std	Y+29, r24	; 0x1d
     2cc:	9e 8f       	std	Y+30, r25	; 0x1e
     2ce:	ab 8d       	ldd	r26, Y+27	; 0x1b
     2d0:	bc 8d       	ldd	r27, Y+28	; 0x1c
     2d2:	ba 87       	std	Y+10, r27	; 0x0a
     2d4:	a9 87       	std	Y+9, r26	; 0x09

000002d6 <.Loc.9>:
		while(__ticks)
     2d6:	10 c0       	rjmp	.+32     	; 0x2f8 <.L7>

000002d8 <.L8>:
     2d8:	80 e9       	ldi	r24, 0x90	; 144
     2da:	91 e0       	ldi	r25, 0x01	; 1
     2dc:	9c 87       	std	Y+12, r25	; 0x0c
     2de:	8b 87       	std	Y+11, r24	; 0x0b

000002e0 <.LBB44>:
		"sbc %B0,__zero_reg__"    "\n\t"
		"brne 1b"
		: "+d" (__count)
	);
#else
	__asm__ volatile (
     2e0:	8b 85       	ldd	r24, Y+11	; 0x0b
     2e2:	9c 85       	ldd	r25, Y+12	; 0x0c

000002e4 <.L1^B1>:
     2e4:	01 97       	sbiw	r24, 0x01	; 1
     2e6:	f1 f7       	brne	.-4      	; 0x2e4 <.L1^B1>
     2e8:	9c 87       	std	Y+12, r25	; 0x0c
     2ea:	8b 87       	std	Y+11, r24	; 0x0b

000002ec <.Loc.11>:
	...

000002ee <.LBE44>:
		{
			// wait 1/10 ms
			_delay_loop_2(((F_CPU) / 4e3) / 10);
			__ticks --;
     2ee:	89 85       	ldd	r24, Y+9	; 0x09
     2f0:	9a 85       	ldd	r25, Y+10	; 0x0a
     2f2:	01 97       	sbiw	r24, 0x01	; 1
     2f4:	9a 87       	std	Y+10, r25	; 0x0a
     2f6:	89 87       	std	Y+9, r24	; 0x09

000002f8 <.L7>:
		while(__ticks)
     2f8:	89 85       	ldd	r24, Y+9	; 0x09
     2fa:	9a 85       	ldd	r25, Y+10	; 0x0a
     2fc:	00 97       	sbiw	r24, 0x00	; 0
     2fe:	61 f7       	brne	.-40     	; 0x2d8 <.L8>

00000300 <.Loc.14>:
		}
		return;
     300:	19 c0       	rjmp	.+50     	; 0x334 <.L9>

00000302 <.L13>:
	}
	else
		__ticks = (uint16_t)__tmp;
     302:	6d 81       	ldd	r22, Y+5	; 0x05
     304:	7e 81       	ldd	r23, Y+6	; 0x06
     306:	8f 81       	ldd	r24, Y+7	; 0x07
     308:	98 85       	ldd	r25, Y+8	; 0x08
     30a:	0e 94 31 18 	call	0x3062	; 0x3062 <__fixunssfsi>
     30e:	6f 8f       	std	Y+31, r22	; 0x1f
     310:	78 a3       	std	Y+32, r23	; 0x20
     312:	89 a3       	std	Y+33, r24	; 0x21
     314:	9a a3       	std	Y+34, r25	; 0x22
     316:	8f 8d       	ldd	r24, Y+31	; 0x1f
     318:	98 a1       	ldd	r25, Y+32	; 0x20
     31a:	9a 87       	std	Y+10, r25	; 0x0a
     31c:	89 87       	std	Y+9, r24	; 0x09

0000031e <.L4>:
     31e:	89 85       	ldd	r24, Y+9	; 0x09
     320:	9a 85       	ldd	r25, Y+10	; 0x0a
     322:	9e 87       	std	Y+14, r25	; 0x0e
     324:	8d 87       	std	Y+13, r24	; 0x0d

00000326 <.LBB46>:
     326:	8d 85       	ldd	r24, Y+13	; 0x0d
     328:	9e 85       	ldd	r25, Y+14	; 0x0e

0000032a <.L1^B2>:
     32a:	01 97       	sbiw	r24, 0x01	; 1
     32c:	f1 f7       	brne	.-4      	; 0x32a <.L1^B2>
     32e:	9e 87       	std	Y+14, r25	; 0x0e
     330:	8d 87       	std	Y+13, r24	; 0x0d

00000332 <.Loc.17>:
	...

00000334 <.L9>:
    _delay_ms(100);
}
     334:	00 00       	nop
     336:	a2 96       	adiw	r28, 0x22	; 34
     338:	0f b6       	in	r0, 0x3f	; 63
     33a:	f8 94       	cli
     33c:	de bf       	out	0x3e, r29	; 62
     33e:	0f be       	out	0x3f, r0	; 63
     340:	cd bf       	out	0x3d, r28	; 61
     342:	df 91       	pop	r29
     344:	cf 91       	pop	r28
     346:	08 95       	ret

00000348 <agv_rechts_bocht>:

void agv_rechts_bocht(void)
{
     348:	cf 93       	push	r28
     34a:	df 93       	push	r29
     34c:	cd b7       	in	r28, 0x3d	; 61
     34e:	de b7       	in	r29, 0x3e	; 62
     350:	a2 97       	sbiw	r28, 0x22	; 34
     352:	0f b6       	in	r0, 0x3f	; 63
     354:	f8 94       	cli
     356:	de bf       	out	0x3e, r29	; 62
     358:	0f be       	out	0x3f, r0	; 63
     35a:	cd bf       	out	0x3d, r28	; 61

0000035c <.Loc.20>:
    set_motor_speed(1, 200);
     35c:	68 ec       	ldi	r22, 0xC8	; 200
     35e:	81 e0       	ldi	r24, 0x01	; 1
     360:	0e 94 66 05 	call	0xacc	; 0xacc <set_motor_speed>

00000364 <.Loc.21>:
    set_motor_speed(2, 150);
     364:	66 e9       	ldi	r22, 0x96	; 150
     366:	82 e0       	ldi	r24, 0x02	; 2
     368:	0e 94 66 05 	call	0xacc	; 0xacc <set_motor_speed>
     36c:	80 e0       	ldi	r24, 0x00	; 0
     36e:	90 e0       	ldi	r25, 0x00	; 0
     370:	a8 ec       	ldi	r26, 0xC8	; 200
     372:	b2 e4       	ldi	r27, 0x42	; 66
     374:	89 83       	std	Y+1, r24	; 0x01
     376:	9a 83       	std	Y+2, r25	; 0x02
     378:	ab 83       	std	Y+3, r26	; 0x03
     37a:	bc 83       	std	Y+4, r27	; 0x04

0000037c <.LBB48>:
	__tmp = ((F_CPU) / 4e3) * __ms;
     37c:	20 e0       	ldi	r18, 0x00	; 0
     37e:	30 e0       	ldi	r19, 0x00	; 0
     380:	4a e7       	ldi	r20, 0x7A	; 122
     382:	55 e4       	ldi	r21, 0x45	; 69
     384:	69 81       	ldd	r22, Y+1	; 0x01
     386:	7a 81       	ldd	r23, Y+2	; 0x02
     388:	8b 81       	ldd	r24, Y+3	; 0x03
     38a:	9c 81       	ldd	r25, Y+4	; 0x04
     38c:	0e 94 17 19 	call	0x322e	; 0x322e <__mulsf3>
     390:	6b 8b       	std	Y+19, r22	; 0x13
     392:	7c 8b       	std	Y+20, r23	; 0x14
     394:	8d 8b       	std	Y+21, r24	; 0x15
     396:	9e 8b       	std	Y+22, r25	; 0x16
     398:	8b 89       	ldd	r24, Y+19	; 0x13
     39a:	9c 89       	ldd	r25, Y+20	; 0x14
     39c:	ad 89       	ldd	r26, Y+21	; 0x15
     39e:	be 89       	ldd	r27, Y+22	; 0x16
     3a0:	8d 83       	std	Y+5, r24	; 0x05
     3a2:	9e 83       	std	Y+6, r25	; 0x06
     3a4:	af 83       	std	Y+7, r26	; 0x07
     3a6:	b8 87       	std	Y+8, r27	; 0x08

000003a8 <.Loc.23>:
	if (__tmp < 1.0)
     3a8:	20 e0       	ldi	r18, 0x00	; 0
     3aa:	30 e0       	ldi	r19, 0x00	; 0
     3ac:	40 e8       	ldi	r20, 0x80	; 128
     3ae:	5f e3       	ldi	r21, 0x3F	; 63
     3b0:	6d 81       	ldd	r22, Y+5	; 0x05
     3b2:	7e 81       	ldd	r23, Y+6	; 0x06
     3b4:	8f 81       	ldd	r24, Y+7	; 0x07
     3b6:	98 85       	ldd	r25, Y+8	; 0x08
     3b8:	0e 94 ba 17 	call	0x2f74	; 0x2f74 <__cmpsf2>
     3bc:	88 23       	and	r24, r24
     3be:	2c f4       	brge	.+10     	; 0x3ca <.L25>

000003c0 <.Loc.24>:
		__ticks = 1;
     3c0:	81 e0       	ldi	r24, 0x01	; 1
     3c2:	90 e0       	ldi	r25, 0x00	; 0
     3c4:	9a 87       	std	Y+10, r25	; 0x0a
     3c6:	89 87       	std	Y+9, r24	; 0x09
     3c8:	55 c0       	rjmp	.+170    	; 0x474 <.L17>

000003ca <.L25>:
	else if (__tmp > 65535)
     3ca:	20 e0       	ldi	r18, 0x00	; 0
     3cc:	3f ef       	ldi	r19, 0xFF	; 255
     3ce:	4f e7       	ldi	r20, 0x7F	; 127
     3d0:	57 e4       	ldi	r21, 0x47	; 71
     3d2:	6d 81       	ldd	r22, Y+5	; 0x05
     3d4:	7e 81       	ldd	r23, Y+6	; 0x06
     3d6:	8f 81       	ldd	r24, Y+7	; 0x07
     3d8:	98 85       	ldd	r25, Y+8	; 0x08
     3da:	0e 94 12 19 	call	0x3224	; 0x3224 <__gesf2>
     3de:	88 23       	and	r24, r24
     3e0:	d9 f1       	breq	.+118    	; 0x458 <.L26>
     3e2:	d4 f1       	brlt	.+116    	; 0x458 <.L26>

000003e4 <.Loc.26>:
		__ticks = (uint16_t) (__ms * 10.0);
     3e4:	20 e0       	ldi	r18, 0x00	; 0
     3e6:	30 e0       	ldi	r19, 0x00	; 0
     3e8:	40 e2       	ldi	r20, 0x20	; 32
     3ea:	51 e4       	ldi	r21, 0x41	; 65
     3ec:	69 81       	ldd	r22, Y+1	; 0x01
     3ee:	7a 81       	ldd	r23, Y+2	; 0x02
     3f0:	8b 81       	ldd	r24, Y+3	; 0x03
     3f2:	9c 81       	ldd	r25, Y+4	; 0x04
     3f4:	0e 94 17 19 	call	0x322e	; 0x322e <__mulsf3>
     3f8:	6f 8b       	std	Y+23, r22	; 0x17
     3fa:	78 8f       	std	Y+24, r23	; 0x18
     3fc:	89 8f       	std	Y+25, r24	; 0x19
     3fe:	9a 8f       	std	Y+26, r25	; 0x1a
     400:	8f 89       	ldd	r24, Y+23	; 0x17
     402:	98 8d       	ldd	r25, Y+24	; 0x18
     404:	a9 8d       	ldd	r26, Y+25	; 0x19
     406:	ba 8d       	ldd	r27, Y+26	; 0x1a
     408:	8f 87       	std	Y+15, r24	; 0x0f
     40a:	98 8b       	std	Y+16, r25	; 0x10
     40c:	a9 8b       	std	Y+17, r26	; 0x11
     40e:	ba 8b       	std	Y+18, r27	; 0x12

00000410 <.Loc.27>:
     410:	6f 85       	ldd	r22, Y+15	; 0x0f
     412:	78 89       	ldd	r23, Y+16	; 0x10
     414:	89 89       	ldd	r24, Y+17	; 0x11
     416:	9a 89       	ldd	r25, Y+18	; 0x12
     418:	0e 94 31 18 	call	0x3062	; 0x3062 <__fixunssfsi>
     41c:	6b 8f       	std	Y+27, r22	; 0x1b
     41e:	7c 8f       	std	Y+28, r23	; 0x1c
     420:	8d 8f       	std	Y+29, r24	; 0x1d
     422:	9e 8f       	std	Y+30, r25	; 0x1e
     424:	ab 8d       	ldd	r26, Y+27	; 0x1b
     426:	bc 8d       	ldd	r27, Y+28	; 0x1c
     428:	ba 87       	std	Y+10, r27	; 0x0a
     42a:	a9 87       	std	Y+9, r26	; 0x09

0000042c <.Loc.28>:
		while(__ticks)
     42c:	10 c0       	rjmp	.+32     	; 0x44e <.L20>

0000042e <.L21>:
     42e:	80 e9       	ldi	r24, 0x90	; 144
     430:	91 e0       	ldi	r25, 0x01	; 1
     432:	9c 87       	std	Y+12, r25	; 0x0c
     434:	8b 87       	std	Y+11, r24	; 0x0b

00000436 <.LBB50>:
     436:	8b 85       	ldd	r24, Y+11	; 0x0b
     438:	9c 85       	ldd	r25, Y+12	; 0x0c

0000043a <.L1^B3>:
     43a:	01 97       	sbiw	r24, 0x01	; 1
     43c:	f1 f7       	brne	.-4      	; 0x43a <.L1^B3>
     43e:	9c 87       	std	Y+12, r25	; 0x0c
     440:	8b 87       	std	Y+11, r24	; 0x0b

00000442 <.Loc.30>:
	...

00000444 <.LBE50>:
			__ticks --;
     444:	89 85       	ldd	r24, Y+9	; 0x09
     446:	9a 85       	ldd	r25, Y+10	; 0x0a
     448:	01 97       	sbiw	r24, 0x01	; 1
     44a:	9a 87       	std	Y+10, r25	; 0x0a
     44c:	89 87       	std	Y+9, r24	; 0x09

0000044e <.L20>:
		while(__ticks)
     44e:	89 85       	ldd	r24, Y+9	; 0x09
     450:	9a 85       	ldd	r25, Y+10	; 0x0a
     452:	00 97       	sbiw	r24, 0x00	; 0
     454:	61 f7       	brne	.-40     	; 0x42e <.L21>

00000456 <.Loc.33>:
		return;
     456:	19 c0       	rjmp	.+50     	; 0x48a <.L22>

00000458 <.L26>:
		__ticks = (uint16_t)__tmp;
     458:	6d 81       	ldd	r22, Y+5	; 0x05
     45a:	7e 81       	ldd	r23, Y+6	; 0x06
     45c:	8f 81       	ldd	r24, Y+7	; 0x07
     45e:	98 85       	ldd	r25, Y+8	; 0x08
     460:	0e 94 31 18 	call	0x3062	; 0x3062 <__fixunssfsi>
     464:	6f 8f       	std	Y+31, r22	; 0x1f
     466:	78 a3       	std	Y+32, r23	; 0x20
     468:	89 a3       	std	Y+33, r24	; 0x21
     46a:	9a a3       	std	Y+34, r25	; 0x22
     46c:	8f 8d       	ldd	r24, Y+31	; 0x1f
     46e:	98 a1       	ldd	r25, Y+32	; 0x20
     470:	9a 87       	std	Y+10, r25	; 0x0a
     472:	89 87       	std	Y+9, r24	; 0x09

00000474 <.L17>:
     474:	89 85       	ldd	r24, Y+9	; 0x09
     476:	9a 85       	ldd	r25, Y+10	; 0x0a
     478:	9e 87       	std	Y+14, r25	; 0x0e
     47a:	8d 87       	std	Y+13, r24	; 0x0d

0000047c <.LBB52>:
     47c:	8d 85       	ldd	r24, Y+13	; 0x0d
     47e:	9e 85       	ldd	r25, Y+14	; 0x0e

00000480 <.L1^B4>:
     480:	01 97       	sbiw	r24, 0x01	; 1
     482:	f1 f7       	brne	.-4      	; 0x480 <.L1^B4>
     484:	9e 87       	std	Y+14, r25	; 0x0e
     486:	8d 87       	std	Y+13, r24	; 0x0d

00000488 <.Loc.36>:
	...

0000048a <.L22>:
    _delay_ms(100);
}
     48a:	00 00       	nop
     48c:	a2 96       	adiw	r28, 0x22	; 34
     48e:	0f b6       	in	r0, 0x3f	; 63
     490:	f8 94       	cli
     492:	de bf       	out	0x3e, r29	; 62
     494:	0f be       	out	0x3f, r0	; 63
     496:	cd bf       	out	0x3d, r28	; 61
     498:	df 91       	pop	r29
     49a:	cf 91       	pop	r28
     49c:	08 95       	ret

0000049e <agv_links_bocht>:

void agv_links_bocht(void)
{
     49e:	cf 93       	push	r28
     4a0:	df 93       	push	r29
     4a2:	cd b7       	in	r28, 0x3d	; 61
     4a4:	de b7       	in	r29, 0x3e	; 62
     4a6:	a2 97       	sbiw	r28, 0x22	; 34
     4a8:	0f b6       	in	r0, 0x3f	; 63
     4aa:	f8 94       	cli
     4ac:	de bf       	out	0x3e, r29	; 62
     4ae:	0f be       	out	0x3f, r0	; 63
     4b0:	cd bf       	out	0x3d, r28	; 61

000004b2 <.Loc.39>:
    set_motor_speed(1, 150);
     4b2:	66 e9       	ldi	r22, 0x96	; 150
     4b4:	81 e0       	ldi	r24, 0x01	; 1
     4b6:	0e 94 66 05 	call	0xacc	; 0xacc <set_motor_speed>

000004ba <.Loc.40>:
    set_motor_speed(2, 200);
     4ba:	68 ec       	ldi	r22, 0xC8	; 200
     4bc:	82 e0       	ldi	r24, 0x02	; 2
     4be:	0e 94 66 05 	call	0xacc	; 0xacc <set_motor_speed>
     4c2:	80 e0       	ldi	r24, 0x00	; 0
     4c4:	90 e0       	ldi	r25, 0x00	; 0
     4c6:	a8 ec       	ldi	r26, 0xC8	; 200
     4c8:	b2 e4       	ldi	r27, 0x42	; 66
     4ca:	89 83       	std	Y+1, r24	; 0x01
     4cc:	9a 83       	std	Y+2, r25	; 0x02
     4ce:	ab 83       	std	Y+3, r26	; 0x03
     4d0:	bc 83       	std	Y+4, r27	; 0x04

000004d2 <.LBB54>:
	__tmp = ((F_CPU) / 4e3) * __ms;
     4d2:	20 e0       	ldi	r18, 0x00	; 0
     4d4:	30 e0       	ldi	r19, 0x00	; 0
     4d6:	4a e7       	ldi	r20, 0x7A	; 122
     4d8:	55 e4       	ldi	r21, 0x45	; 69
     4da:	69 81       	ldd	r22, Y+1	; 0x01
     4dc:	7a 81       	ldd	r23, Y+2	; 0x02
     4de:	8b 81       	ldd	r24, Y+3	; 0x03
     4e0:	9c 81       	ldd	r25, Y+4	; 0x04
     4e2:	0e 94 17 19 	call	0x322e	; 0x322e <__mulsf3>
     4e6:	6b 8b       	std	Y+19, r22	; 0x13
     4e8:	7c 8b       	std	Y+20, r23	; 0x14
     4ea:	8d 8b       	std	Y+21, r24	; 0x15
     4ec:	9e 8b       	std	Y+22, r25	; 0x16
     4ee:	8b 89       	ldd	r24, Y+19	; 0x13
     4f0:	9c 89       	ldd	r25, Y+20	; 0x14
     4f2:	ad 89       	ldd	r26, Y+21	; 0x15
     4f4:	be 89       	ldd	r27, Y+22	; 0x16
     4f6:	8d 83       	std	Y+5, r24	; 0x05
     4f8:	9e 83       	std	Y+6, r25	; 0x06
     4fa:	af 83       	std	Y+7, r26	; 0x07
     4fc:	b8 87       	std	Y+8, r27	; 0x08

000004fe <.Loc.42>:
	if (__tmp < 1.0)
     4fe:	20 e0       	ldi	r18, 0x00	; 0
     500:	30 e0       	ldi	r19, 0x00	; 0
     502:	40 e8       	ldi	r20, 0x80	; 128
     504:	5f e3       	ldi	r21, 0x3F	; 63
     506:	6d 81       	ldd	r22, Y+5	; 0x05
     508:	7e 81       	ldd	r23, Y+6	; 0x06
     50a:	8f 81       	ldd	r24, Y+7	; 0x07
     50c:	98 85       	ldd	r25, Y+8	; 0x08
     50e:	0e 94 ba 17 	call	0x2f74	; 0x2f74 <__cmpsf2>
     512:	88 23       	and	r24, r24
     514:	2c f4       	brge	.+10     	; 0x520 <.L38>

00000516 <.Loc.43>:
		__ticks = 1;
     516:	81 e0       	ldi	r24, 0x01	; 1
     518:	90 e0       	ldi	r25, 0x00	; 0
     51a:	9a 87       	std	Y+10, r25	; 0x0a
     51c:	89 87       	std	Y+9, r24	; 0x09
     51e:	55 c0       	rjmp	.+170    	; 0x5ca <.L30>

00000520 <.L38>:
	else if (__tmp > 65535)
     520:	20 e0       	ldi	r18, 0x00	; 0
     522:	3f ef       	ldi	r19, 0xFF	; 255
     524:	4f e7       	ldi	r20, 0x7F	; 127
     526:	57 e4       	ldi	r21, 0x47	; 71
     528:	6d 81       	ldd	r22, Y+5	; 0x05
     52a:	7e 81       	ldd	r23, Y+6	; 0x06
     52c:	8f 81       	ldd	r24, Y+7	; 0x07
     52e:	98 85       	ldd	r25, Y+8	; 0x08
     530:	0e 94 12 19 	call	0x3224	; 0x3224 <__gesf2>
     534:	88 23       	and	r24, r24
     536:	d9 f1       	breq	.+118    	; 0x5ae <.L39>
     538:	d4 f1       	brlt	.+116    	; 0x5ae <.L39>

0000053a <.Loc.45>:
		__ticks = (uint16_t) (__ms * 10.0);
     53a:	20 e0       	ldi	r18, 0x00	; 0
     53c:	30 e0       	ldi	r19, 0x00	; 0
     53e:	40 e2       	ldi	r20, 0x20	; 32
     540:	51 e4       	ldi	r21, 0x41	; 65
     542:	69 81       	ldd	r22, Y+1	; 0x01
     544:	7a 81       	ldd	r23, Y+2	; 0x02
     546:	8b 81       	ldd	r24, Y+3	; 0x03
     548:	9c 81       	ldd	r25, Y+4	; 0x04
     54a:	0e 94 17 19 	call	0x322e	; 0x322e <__mulsf3>
     54e:	6f 8b       	std	Y+23, r22	; 0x17
     550:	78 8f       	std	Y+24, r23	; 0x18
     552:	89 8f       	std	Y+25, r24	; 0x19
     554:	9a 8f       	std	Y+26, r25	; 0x1a
     556:	8f 89       	ldd	r24, Y+23	; 0x17
     558:	98 8d       	ldd	r25, Y+24	; 0x18
     55a:	a9 8d       	ldd	r26, Y+25	; 0x19
     55c:	ba 8d       	ldd	r27, Y+26	; 0x1a
     55e:	8f 87       	std	Y+15, r24	; 0x0f
     560:	98 8b       	std	Y+16, r25	; 0x10
     562:	a9 8b       	std	Y+17, r26	; 0x11
     564:	ba 8b       	std	Y+18, r27	; 0x12

00000566 <.Loc.46>:
     566:	6f 85       	ldd	r22, Y+15	; 0x0f
     568:	78 89       	ldd	r23, Y+16	; 0x10
     56a:	89 89       	ldd	r24, Y+17	; 0x11
     56c:	9a 89       	ldd	r25, Y+18	; 0x12
     56e:	0e 94 31 18 	call	0x3062	; 0x3062 <__fixunssfsi>
     572:	6b 8f       	std	Y+27, r22	; 0x1b
     574:	7c 8f       	std	Y+28, r23	; 0x1c
     576:	8d 8f       	std	Y+29, r24	; 0x1d
     578:	9e 8f       	std	Y+30, r25	; 0x1e
     57a:	ab 8d       	ldd	r26, Y+27	; 0x1b
     57c:	bc 8d       	ldd	r27, Y+28	; 0x1c
     57e:	ba 87       	std	Y+10, r27	; 0x0a
     580:	a9 87       	std	Y+9, r26	; 0x09

00000582 <.Loc.47>:
		while(__ticks)
     582:	10 c0       	rjmp	.+32     	; 0x5a4 <.L33>

00000584 <.L34>:
     584:	80 e9       	ldi	r24, 0x90	; 144
     586:	91 e0       	ldi	r25, 0x01	; 1
     588:	9c 87       	std	Y+12, r25	; 0x0c
     58a:	8b 87       	std	Y+11, r24	; 0x0b

0000058c <.LBB56>:
     58c:	8b 85       	ldd	r24, Y+11	; 0x0b
     58e:	9c 85       	ldd	r25, Y+12	; 0x0c

00000590 <.L1^B5>:
     590:	01 97       	sbiw	r24, 0x01	; 1
     592:	f1 f7       	brne	.-4      	; 0x590 <.L1^B5>
     594:	9c 87       	std	Y+12, r25	; 0x0c
     596:	8b 87       	std	Y+11, r24	; 0x0b

00000598 <.Loc.49>:
	...

0000059a <.LBE56>:
			__ticks --;
     59a:	89 85       	ldd	r24, Y+9	; 0x09
     59c:	9a 85       	ldd	r25, Y+10	; 0x0a
     59e:	01 97       	sbiw	r24, 0x01	; 1
     5a0:	9a 87       	std	Y+10, r25	; 0x0a
     5a2:	89 87       	std	Y+9, r24	; 0x09

000005a4 <.L33>:
		while(__ticks)
     5a4:	89 85       	ldd	r24, Y+9	; 0x09
     5a6:	9a 85       	ldd	r25, Y+10	; 0x0a
     5a8:	00 97       	sbiw	r24, 0x00	; 0
     5aa:	61 f7       	brne	.-40     	; 0x584 <.L34>

000005ac <.Loc.52>:
		return;
     5ac:	19 c0       	rjmp	.+50     	; 0x5e0 <.L35>

000005ae <.L39>:
		__ticks = (uint16_t)__tmp;
     5ae:	6d 81       	ldd	r22, Y+5	; 0x05
     5b0:	7e 81       	ldd	r23, Y+6	; 0x06
     5b2:	8f 81       	ldd	r24, Y+7	; 0x07
     5b4:	98 85       	ldd	r25, Y+8	; 0x08
     5b6:	0e 94 31 18 	call	0x3062	; 0x3062 <__fixunssfsi>
     5ba:	6f 8f       	std	Y+31, r22	; 0x1f
     5bc:	78 a3       	std	Y+32, r23	; 0x20
     5be:	89 a3       	std	Y+33, r24	; 0x21
     5c0:	9a a3       	std	Y+34, r25	; 0x22
     5c2:	8f 8d       	ldd	r24, Y+31	; 0x1f
     5c4:	98 a1       	ldd	r25, Y+32	; 0x20
     5c6:	9a 87       	std	Y+10, r25	; 0x0a
     5c8:	89 87       	std	Y+9, r24	; 0x09

000005ca <.L30>:
     5ca:	89 85       	ldd	r24, Y+9	; 0x09
     5cc:	9a 85       	ldd	r25, Y+10	; 0x0a
     5ce:	9e 87       	std	Y+14, r25	; 0x0e
     5d0:	8d 87       	std	Y+13, r24	; 0x0d

000005d2 <.LBB58>:
     5d2:	8d 85       	ldd	r24, Y+13	; 0x0d
     5d4:	9e 85       	ldd	r25, Y+14	; 0x0e

000005d6 <.L1^B6>:
     5d6:	01 97       	sbiw	r24, 0x01	; 1
     5d8:	f1 f7       	brne	.-4      	; 0x5d6 <.L1^B6>
     5da:	9e 87       	std	Y+14, r25	; 0x0e
     5dc:	8d 87       	std	Y+13, r24	; 0x0d

000005de <.Loc.55>:
	...

000005e0 <.L35>:
    _delay_ms(100);
}
     5e0:	00 00       	nop
     5e2:	a2 96       	adiw	r28, 0x22	; 34
     5e4:	0f b6       	in	r0, 0x3f	; 63
     5e6:	f8 94       	cli
     5e8:	de bf       	out	0x3e, r29	; 62
     5ea:	0f be       	out	0x3f, r0	; 63
     5ec:	cd bf       	out	0x3d, r28	; 61
     5ee:	df 91       	pop	r29
     5f0:	cf 91       	pop	r28
     5f2:	08 95       	ret

000005f4 <agv_stoppen>:

void agv_stoppen(void)
{
     5f4:	cf 93       	push	r28
     5f6:	df 93       	push	r29
     5f8:	cd b7       	in	r28, 0x3d	; 61
     5fa:	de b7       	in	r29, 0x3e	; 62
     5fc:	a2 97       	sbiw	r28, 0x22	; 34
     5fe:	0f b6       	in	r0, 0x3f	; 63
     600:	f8 94       	cli
     602:	de bf       	out	0x3e, r29	; 62
     604:	0f be       	out	0x3f, r0	; 63
     606:	cd bf       	out	0x3d, r28	; 61

00000608 <.Loc.58>:
    set_motor_speed(1, 0);
     608:	60 e0       	ldi	r22, 0x00	; 0
     60a:	81 e0       	ldi	r24, 0x01	; 1
     60c:	0e 94 66 05 	call	0xacc	; 0xacc <set_motor_speed>

00000610 <.Loc.59>:
    set_motor_speed(2, 0);
     610:	60 e0       	ldi	r22, 0x00	; 0
     612:	82 e0       	ldi	r24, 0x02	; 2
     614:	0e 94 66 05 	call	0xacc	; 0xacc <set_motor_speed>
     618:	80 e0       	ldi	r24, 0x00	; 0
     61a:	90 e0       	ldi	r25, 0x00	; 0
     61c:	a8 ec       	ldi	r26, 0xC8	; 200
     61e:	b2 e4       	ldi	r27, 0x42	; 66
     620:	89 83       	std	Y+1, r24	; 0x01
     622:	9a 83       	std	Y+2, r25	; 0x02
     624:	ab 83       	std	Y+3, r26	; 0x03
     626:	bc 83       	std	Y+4, r27	; 0x04

00000628 <.LBB60>:
	__tmp = ((F_CPU) / 4e3) * __ms;
     628:	20 e0       	ldi	r18, 0x00	; 0
     62a:	30 e0       	ldi	r19, 0x00	; 0
     62c:	4a e7       	ldi	r20, 0x7A	; 122
     62e:	55 e4       	ldi	r21, 0x45	; 69
     630:	69 81       	ldd	r22, Y+1	; 0x01
     632:	7a 81       	ldd	r23, Y+2	; 0x02
     634:	8b 81       	ldd	r24, Y+3	; 0x03
     636:	9c 81       	ldd	r25, Y+4	; 0x04
     638:	0e 94 17 19 	call	0x322e	; 0x322e <__mulsf3>
     63c:	6b 8b       	std	Y+19, r22	; 0x13
     63e:	7c 8b       	std	Y+20, r23	; 0x14
     640:	8d 8b       	std	Y+21, r24	; 0x15
     642:	9e 8b       	std	Y+22, r25	; 0x16
     644:	8b 89       	ldd	r24, Y+19	; 0x13
     646:	9c 89       	ldd	r25, Y+20	; 0x14
     648:	ad 89       	ldd	r26, Y+21	; 0x15
     64a:	be 89       	ldd	r27, Y+22	; 0x16
     64c:	8d 83       	std	Y+5, r24	; 0x05
     64e:	9e 83       	std	Y+6, r25	; 0x06
     650:	af 83       	std	Y+7, r26	; 0x07
     652:	b8 87       	std	Y+8, r27	; 0x08

00000654 <.Loc.61>:
	if (__tmp < 1.0)
     654:	20 e0       	ldi	r18, 0x00	; 0
     656:	30 e0       	ldi	r19, 0x00	; 0
     658:	40 e8       	ldi	r20, 0x80	; 128
     65a:	5f e3       	ldi	r21, 0x3F	; 63
     65c:	6d 81       	ldd	r22, Y+5	; 0x05
     65e:	7e 81       	ldd	r23, Y+6	; 0x06
     660:	8f 81       	ldd	r24, Y+7	; 0x07
     662:	98 85       	ldd	r25, Y+8	; 0x08
     664:	0e 94 ba 17 	call	0x2f74	; 0x2f74 <__cmpsf2>
     668:	88 23       	and	r24, r24
     66a:	2c f4       	brge	.+10     	; 0x676 <.L51>

0000066c <.Loc.62>:
		__ticks = 1;
     66c:	81 e0       	ldi	r24, 0x01	; 1
     66e:	90 e0       	ldi	r25, 0x00	; 0
     670:	9a 87       	std	Y+10, r25	; 0x0a
     672:	89 87       	std	Y+9, r24	; 0x09
     674:	55 c0       	rjmp	.+170    	; 0x720 <.L43>

00000676 <.L51>:
	else if (__tmp > 65535)
     676:	20 e0       	ldi	r18, 0x00	; 0
     678:	3f ef       	ldi	r19, 0xFF	; 255
     67a:	4f e7       	ldi	r20, 0x7F	; 127
     67c:	57 e4       	ldi	r21, 0x47	; 71
     67e:	6d 81       	ldd	r22, Y+5	; 0x05
     680:	7e 81       	ldd	r23, Y+6	; 0x06
     682:	8f 81       	ldd	r24, Y+7	; 0x07
     684:	98 85       	ldd	r25, Y+8	; 0x08
     686:	0e 94 12 19 	call	0x3224	; 0x3224 <__gesf2>
     68a:	88 23       	and	r24, r24
     68c:	d9 f1       	breq	.+118    	; 0x704 <.L52>
     68e:	d4 f1       	brlt	.+116    	; 0x704 <.L52>

00000690 <.Loc.64>:
		__ticks = (uint16_t) (__ms * 10.0);
     690:	20 e0       	ldi	r18, 0x00	; 0
     692:	30 e0       	ldi	r19, 0x00	; 0
     694:	40 e2       	ldi	r20, 0x20	; 32
     696:	51 e4       	ldi	r21, 0x41	; 65
     698:	69 81       	ldd	r22, Y+1	; 0x01
     69a:	7a 81       	ldd	r23, Y+2	; 0x02
     69c:	8b 81       	ldd	r24, Y+3	; 0x03
     69e:	9c 81       	ldd	r25, Y+4	; 0x04
     6a0:	0e 94 17 19 	call	0x322e	; 0x322e <__mulsf3>
     6a4:	6f 8b       	std	Y+23, r22	; 0x17
     6a6:	78 8f       	std	Y+24, r23	; 0x18
     6a8:	89 8f       	std	Y+25, r24	; 0x19
     6aa:	9a 8f       	std	Y+26, r25	; 0x1a
     6ac:	8f 89       	ldd	r24, Y+23	; 0x17
     6ae:	98 8d       	ldd	r25, Y+24	; 0x18
     6b0:	a9 8d       	ldd	r26, Y+25	; 0x19
     6b2:	ba 8d       	ldd	r27, Y+26	; 0x1a
     6b4:	8f 87       	std	Y+15, r24	; 0x0f
     6b6:	98 8b       	std	Y+16, r25	; 0x10
     6b8:	a9 8b       	std	Y+17, r26	; 0x11
     6ba:	ba 8b       	std	Y+18, r27	; 0x12

000006bc <.Loc.65>:
     6bc:	6f 85       	ldd	r22, Y+15	; 0x0f
     6be:	78 89       	ldd	r23, Y+16	; 0x10
     6c0:	89 89       	ldd	r24, Y+17	; 0x11
     6c2:	9a 89       	ldd	r25, Y+18	; 0x12
     6c4:	0e 94 31 18 	call	0x3062	; 0x3062 <__fixunssfsi>
     6c8:	6b 8f       	std	Y+27, r22	; 0x1b
     6ca:	7c 8f       	std	Y+28, r23	; 0x1c
     6cc:	8d 8f       	std	Y+29, r24	; 0x1d
     6ce:	9e 8f       	std	Y+30, r25	; 0x1e
     6d0:	ab 8d       	ldd	r26, Y+27	; 0x1b
     6d2:	bc 8d       	ldd	r27, Y+28	; 0x1c
     6d4:	ba 87       	std	Y+10, r27	; 0x0a
     6d6:	a9 87       	std	Y+9, r26	; 0x09

000006d8 <.Loc.66>:
		while(__ticks)
     6d8:	10 c0       	rjmp	.+32     	; 0x6fa <.L46>

000006da <.L47>:
     6da:	80 e9       	ldi	r24, 0x90	; 144
     6dc:	91 e0       	ldi	r25, 0x01	; 1
     6de:	9c 87       	std	Y+12, r25	; 0x0c
     6e0:	8b 87       	std	Y+11, r24	; 0x0b

000006e2 <.LBB62>:
     6e2:	8b 85       	ldd	r24, Y+11	; 0x0b
     6e4:	9c 85       	ldd	r25, Y+12	; 0x0c

000006e6 <.L1^B7>:
     6e6:	01 97       	sbiw	r24, 0x01	; 1
     6e8:	f1 f7       	brne	.-4      	; 0x6e6 <.L1^B7>
     6ea:	9c 87       	std	Y+12, r25	; 0x0c
     6ec:	8b 87       	std	Y+11, r24	; 0x0b

000006ee <.Loc.68>:
	...

000006f0 <.LBE62>:
			__ticks --;
     6f0:	89 85       	ldd	r24, Y+9	; 0x09
     6f2:	9a 85       	ldd	r25, Y+10	; 0x0a
     6f4:	01 97       	sbiw	r24, 0x01	; 1
     6f6:	9a 87       	std	Y+10, r25	; 0x0a
     6f8:	89 87       	std	Y+9, r24	; 0x09

000006fa <.L46>:
		while(__ticks)
     6fa:	89 85       	ldd	r24, Y+9	; 0x09
     6fc:	9a 85       	ldd	r25, Y+10	; 0x0a
     6fe:	00 97       	sbiw	r24, 0x00	; 0
     700:	61 f7       	brne	.-40     	; 0x6da <.L47>

00000702 <.Loc.71>:
		return;
     702:	19 c0       	rjmp	.+50     	; 0x736 <.L48>

00000704 <.L52>:
		__ticks = (uint16_t)__tmp;
     704:	6d 81       	ldd	r22, Y+5	; 0x05
     706:	7e 81       	ldd	r23, Y+6	; 0x06
     708:	8f 81       	ldd	r24, Y+7	; 0x07
     70a:	98 85       	ldd	r25, Y+8	; 0x08
     70c:	0e 94 31 18 	call	0x3062	; 0x3062 <__fixunssfsi>
     710:	6f 8f       	std	Y+31, r22	; 0x1f
     712:	78 a3       	std	Y+32, r23	; 0x20
     714:	89 a3       	std	Y+33, r24	; 0x21
     716:	9a a3       	std	Y+34, r25	; 0x22
     718:	8f 8d       	ldd	r24, Y+31	; 0x1f
     71a:	98 a1       	ldd	r25, Y+32	; 0x20
     71c:	9a 87       	std	Y+10, r25	; 0x0a
     71e:	89 87       	std	Y+9, r24	; 0x09

00000720 <.L43>:
     720:	89 85       	ldd	r24, Y+9	; 0x09
     722:	9a 85       	ldd	r25, Y+10	; 0x0a
     724:	9e 87       	std	Y+14, r25	; 0x0e
     726:	8d 87       	std	Y+13, r24	; 0x0d

00000728 <.LBB64>:
     728:	8d 85       	ldd	r24, Y+13	; 0x0d
     72a:	9e 85       	ldd	r25, Y+14	; 0x0e

0000072c <.L1^B8>:
     72c:	01 97       	sbiw	r24, 0x01	; 1
     72e:	f1 f7       	brne	.-4      	; 0x72c <.L1^B8>
     730:	9e 87       	std	Y+14, r25	; 0x0e
     732:	8d 87       	std	Y+13, r24	; 0x0d

00000734 <.Loc.74>:
	...

00000736 <.L48>:
    _delay_ms(100);
}
     736:	00 00       	nop
     738:	a2 96       	adiw	r28, 0x22	; 34
     73a:	0f b6       	in	r0, 0x3f	; 63
     73c:	f8 94       	cli
     73e:	de bf       	out	0x3e, r29	; 62
     740:	0f be       	out	0x3f, r0	; 63
     742:	cd bf       	out	0x3d, r28	; 61
     744:	df 91       	pop	r29
     746:	cf 91       	pop	r28
     748:	08 95       	ret

0000074a <agv_rechts_correctie>:

void agv_rechts_correctie(void)
{
     74a:	cf 93       	push	r28
     74c:	df 93       	push	r29
     74e:	cd b7       	in	r28, 0x3d	; 61
     750:	de b7       	in	r29, 0x3e	; 62
     752:	a2 97       	sbiw	r28, 0x22	; 34
     754:	0f b6       	in	r0, 0x3f	; 63
     756:	f8 94       	cli
     758:	de bf       	out	0x3e, r29	; 62
     75a:	0f be       	out	0x3f, r0	; 63
     75c:	cd bf       	out	0x3d, r28	; 61

0000075e <.Loc.77>:
    set_motor_speed(1, 160);
     75e:	60 ea       	ldi	r22, 0xA0	; 160
     760:	81 e0       	ldi	r24, 0x01	; 1
     762:	0e 94 66 05 	call	0xacc	; 0xacc <set_motor_speed>

00000766 <.Loc.78>:
    set_motor_speed(2, 180);
     766:	64 eb       	ldi	r22, 0xB4	; 180
     768:	82 e0       	ldi	r24, 0x02	; 2
     76a:	0e 94 66 05 	call	0xacc	; 0xacc <set_motor_speed>
     76e:	80 e0       	ldi	r24, 0x00	; 0
     770:	90 e0       	ldi	r25, 0x00	; 0
     772:	a8 ec       	ldi	r26, 0xC8	; 200
     774:	b2 e4       	ldi	r27, 0x42	; 66
     776:	89 83       	std	Y+1, r24	; 0x01
     778:	9a 83       	std	Y+2, r25	; 0x02
     77a:	ab 83       	std	Y+3, r26	; 0x03
     77c:	bc 83       	std	Y+4, r27	; 0x04

0000077e <.LBB66>:
	__tmp = ((F_CPU) / 4e3) * __ms;
     77e:	20 e0       	ldi	r18, 0x00	; 0
     780:	30 e0       	ldi	r19, 0x00	; 0
     782:	4a e7       	ldi	r20, 0x7A	; 122
     784:	55 e4       	ldi	r21, 0x45	; 69
     786:	69 81       	ldd	r22, Y+1	; 0x01
     788:	7a 81       	ldd	r23, Y+2	; 0x02
     78a:	8b 81       	ldd	r24, Y+3	; 0x03
     78c:	9c 81       	ldd	r25, Y+4	; 0x04
     78e:	0e 94 17 19 	call	0x322e	; 0x322e <__mulsf3>
     792:	6b 8b       	std	Y+19, r22	; 0x13
     794:	7c 8b       	std	Y+20, r23	; 0x14
     796:	8d 8b       	std	Y+21, r24	; 0x15
     798:	9e 8b       	std	Y+22, r25	; 0x16
     79a:	8b 89       	ldd	r24, Y+19	; 0x13
     79c:	9c 89       	ldd	r25, Y+20	; 0x14
     79e:	ad 89       	ldd	r26, Y+21	; 0x15
     7a0:	be 89       	ldd	r27, Y+22	; 0x16
     7a2:	8d 83       	std	Y+5, r24	; 0x05
     7a4:	9e 83       	std	Y+6, r25	; 0x06
     7a6:	af 83       	std	Y+7, r26	; 0x07
     7a8:	b8 87       	std	Y+8, r27	; 0x08

000007aa <.Loc.80>:
	if (__tmp < 1.0)
     7aa:	20 e0       	ldi	r18, 0x00	; 0
     7ac:	30 e0       	ldi	r19, 0x00	; 0
     7ae:	40 e8       	ldi	r20, 0x80	; 128
     7b0:	5f e3       	ldi	r21, 0x3F	; 63
     7b2:	6d 81       	ldd	r22, Y+5	; 0x05
     7b4:	7e 81       	ldd	r23, Y+6	; 0x06
     7b6:	8f 81       	ldd	r24, Y+7	; 0x07
     7b8:	98 85       	ldd	r25, Y+8	; 0x08
     7ba:	0e 94 ba 17 	call	0x2f74	; 0x2f74 <__cmpsf2>
     7be:	88 23       	and	r24, r24
     7c0:	2c f4       	brge	.+10     	; 0x7cc <.L64>

000007c2 <.Loc.81>:
		__ticks = 1;
     7c2:	81 e0       	ldi	r24, 0x01	; 1
     7c4:	90 e0       	ldi	r25, 0x00	; 0
     7c6:	9a 87       	std	Y+10, r25	; 0x0a
     7c8:	89 87       	std	Y+9, r24	; 0x09
     7ca:	55 c0       	rjmp	.+170    	; 0x876 <.L56>

000007cc <.L64>:
	else if (__tmp > 65535)
     7cc:	20 e0       	ldi	r18, 0x00	; 0
     7ce:	3f ef       	ldi	r19, 0xFF	; 255
     7d0:	4f e7       	ldi	r20, 0x7F	; 127
     7d2:	57 e4       	ldi	r21, 0x47	; 71
     7d4:	6d 81       	ldd	r22, Y+5	; 0x05
     7d6:	7e 81       	ldd	r23, Y+6	; 0x06
     7d8:	8f 81       	ldd	r24, Y+7	; 0x07
     7da:	98 85       	ldd	r25, Y+8	; 0x08
     7dc:	0e 94 12 19 	call	0x3224	; 0x3224 <__gesf2>
     7e0:	88 23       	and	r24, r24
     7e2:	d9 f1       	breq	.+118    	; 0x85a <.L65>
     7e4:	d4 f1       	brlt	.+116    	; 0x85a <.L65>

000007e6 <.Loc.83>:
		__ticks = (uint16_t) (__ms * 10.0);
     7e6:	20 e0       	ldi	r18, 0x00	; 0
     7e8:	30 e0       	ldi	r19, 0x00	; 0
     7ea:	40 e2       	ldi	r20, 0x20	; 32
     7ec:	51 e4       	ldi	r21, 0x41	; 65
     7ee:	69 81       	ldd	r22, Y+1	; 0x01
     7f0:	7a 81       	ldd	r23, Y+2	; 0x02
     7f2:	8b 81       	ldd	r24, Y+3	; 0x03
     7f4:	9c 81       	ldd	r25, Y+4	; 0x04
     7f6:	0e 94 17 19 	call	0x322e	; 0x322e <__mulsf3>
     7fa:	6f 8b       	std	Y+23, r22	; 0x17
     7fc:	78 8f       	std	Y+24, r23	; 0x18
     7fe:	89 8f       	std	Y+25, r24	; 0x19
     800:	9a 8f       	std	Y+26, r25	; 0x1a
     802:	8f 89       	ldd	r24, Y+23	; 0x17
     804:	98 8d       	ldd	r25, Y+24	; 0x18
     806:	a9 8d       	ldd	r26, Y+25	; 0x19
     808:	ba 8d       	ldd	r27, Y+26	; 0x1a
     80a:	8f 87       	std	Y+15, r24	; 0x0f
     80c:	98 8b       	std	Y+16, r25	; 0x10
     80e:	a9 8b       	std	Y+17, r26	; 0x11
     810:	ba 8b       	std	Y+18, r27	; 0x12

00000812 <.Loc.84>:
     812:	6f 85       	ldd	r22, Y+15	; 0x0f
     814:	78 89       	ldd	r23, Y+16	; 0x10
     816:	89 89       	ldd	r24, Y+17	; 0x11
     818:	9a 89       	ldd	r25, Y+18	; 0x12
     81a:	0e 94 31 18 	call	0x3062	; 0x3062 <__fixunssfsi>
     81e:	6b 8f       	std	Y+27, r22	; 0x1b
     820:	7c 8f       	std	Y+28, r23	; 0x1c
     822:	8d 8f       	std	Y+29, r24	; 0x1d
     824:	9e 8f       	std	Y+30, r25	; 0x1e
     826:	ab 8d       	ldd	r26, Y+27	; 0x1b
     828:	bc 8d       	ldd	r27, Y+28	; 0x1c
     82a:	ba 87       	std	Y+10, r27	; 0x0a
     82c:	a9 87       	std	Y+9, r26	; 0x09

0000082e <.Loc.85>:
		while(__ticks)
     82e:	10 c0       	rjmp	.+32     	; 0x850 <.L59>

00000830 <.L60>:
     830:	80 e9       	ldi	r24, 0x90	; 144
     832:	91 e0       	ldi	r25, 0x01	; 1
     834:	9c 87       	std	Y+12, r25	; 0x0c
     836:	8b 87       	std	Y+11, r24	; 0x0b

00000838 <.LBB68>:
     838:	8b 85       	ldd	r24, Y+11	; 0x0b
     83a:	9c 85       	ldd	r25, Y+12	; 0x0c

0000083c <.L1^B9>:
     83c:	01 97       	sbiw	r24, 0x01	; 1
     83e:	f1 f7       	brne	.-4      	; 0x83c <.L1^B9>
     840:	9c 87       	std	Y+12, r25	; 0x0c
     842:	8b 87       	std	Y+11, r24	; 0x0b

00000844 <.Loc.87>:
	...

00000846 <.LBE68>:
			__ticks --;
     846:	89 85       	ldd	r24, Y+9	; 0x09
     848:	9a 85       	ldd	r25, Y+10	; 0x0a
     84a:	01 97       	sbiw	r24, 0x01	; 1
     84c:	9a 87       	std	Y+10, r25	; 0x0a
     84e:	89 87       	std	Y+9, r24	; 0x09

00000850 <.L59>:
		while(__ticks)
     850:	89 85       	ldd	r24, Y+9	; 0x09
     852:	9a 85       	ldd	r25, Y+10	; 0x0a
     854:	00 97       	sbiw	r24, 0x00	; 0
     856:	61 f7       	brne	.-40     	; 0x830 <.L60>

00000858 <.Loc.90>:
		return;
     858:	19 c0       	rjmp	.+50     	; 0x88c <.L61>

0000085a <.L65>:
		__ticks = (uint16_t)__tmp;
     85a:	6d 81       	ldd	r22, Y+5	; 0x05
     85c:	7e 81       	ldd	r23, Y+6	; 0x06
     85e:	8f 81       	ldd	r24, Y+7	; 0x07
     860:	98 85       	ldd	r25, Y+8	; 0x08
     862:	0e 94 31 18 	call	0x3062	; 0x3062 <__fixunssfsi>
     866:	6f 8f       	std	Y+31, r22	; 0x1f
     868:	78 a3       	std	Y+32, r23	; 0x20
     86a:	89 a3       	std	Y+33, r24	; 0x21
     86c:	9a a3       	std	Y+34, r25	; 0x22
     86e:	8f 8d       	ldd	r24, Y+31	; 0x1f
     870:	98 a1       	ldd	r25, Y+32	; 0x20
     872:	9a 87       	std	Y+10, r25	; 0x0a
     874:	89 87       	std	Y+9, r24	; 0x09

00000876 <.L56>:
     876:	89 85       	ldd	r24, Y+9	; 0x09
     878:	9a 85       	ldd	r25, Y+10	; 0x0a
     87a:	9e 87       	std	Y+14, r25	; 0x0e
     87c:	8d 87       	std	Y+13, r24	; 0x0d

0000087e <.LBB70>:
     87e:	8d 85       	ldd	r24, Y+13	; 0x0d
     880:	9e 85       	ldd	r25, Y+14	; 0x0e

00000882 <.L1^B10>:
     882:	01 97       	sbiw	r24, 0x01	; 1
     884:	f1 f7       	brne	.-4      	; 0x882 <.L1^B10>
     886:	9e 87       	std	Y+14, r25	; 0x0e
     888:	8d 87       	std	Y+13, r24	; 0x0d

0000088a <.Loc.93>:
	...

0000088c <.L61>:
    _delay_ms(100);
}
     88c:	00 00       	nop
     88e:	a2 96       	adiw	r28, 0x22	; 34
     890:	0f b6       	in	r0, 0x3f	; 63
     892:	f8 94       	cli
     894:	de bf       	out	0x3e, r29	; 62
     896:	0f be       	out	0x3f, r0	; 63
     898:	cd bf       	out	0x3d, r28	; 61
     89a:	df 91       	pop	r29
     89c:	cf 91       	pop	r28
     89e:	08 95       	ret

000008a0 <agv_links_correctie>:

void agv_links_correctie(void) {
     8a0:	cf 93       	push	r28
     8a2:	df 93       	push	r29
     8a4:	cd b7       	in	r28, 0x3d	; 61
     8a6:	de b7       	in	r29, 0x3e	; 62
     8a8:	a2 97       	sbiw	r28, 0x22	; 34
     8aa:	0f b6       	in	r0, 0x3f	; 63
     8ac:	f8 94       	cli
     8ae:	de bf       	out	0x3e, r29	; 62
     8b0:	0f be       	out	0x3f, r0	; 63
     8b2:	cd bf       	out	0x3d, r28	; 61

000008b4 <.Loc.96>:
    set_motor_speed(1, 180);
     8b4:	64 eb       	ldi	r22, 0xB4	; 180
     8b6:	81 e0       	ldi	r24, 0x01	; 1
     8b8:	0e 94 66 05 	call	0xacc	; 0xacc <set_motor_speed>

000008bc <.Loc.97>:
    set_motor_speed(2, 160);
     8bc:	60 ea       	ldi	r22, 0xA0	; 160
     8be:	82 e0       	ldi	r24, 0x02	; 2
     8c0:	0e 94 66 05 	call	0xacc	; 0xacc <set_motor_speed>
     8c4:	80 e0       	ldi	r24, 0x00	; 0
     8c6:	90 e0       	ldi	r25, 0x00	; 0
     8c8:	a8 ec       	ldi	r26, 0xC8	; 200
     8ca:	b2 e4       	ldi	r27, 0x42	; 66
     8cc:	89 83       	std	Y+1, r24	; 0x01
     8ce:	9a 83       	std	Y+2, r25	; 0x02
     8d0:	ab 83       	std	Y+3, r26	; 0x03
     8d2:	bc 83       	std	Y+4, r27	; 0x04

000008d4 <.LBB72>:
	__tmp = ((F_CPU) / 4e3) * __ms;
     8d4:	20 e0       	ldi	r18, 0x00	; 0
     8d6:	30 e0       	ldi	r19, 0x00	; 0
     8d8:	4a e7       	ldi	r20, 0x7A	; 122
     8da:	55 e4       	ldi	r21, 0x45	; 69
     8dc:	69 81       	ldd	r22, Y+1	; 0x01
     8de:	7a 81       	ldd	r23, Y+2	; 0x02
     8e0:	8b 81       	ldd	r24, Y+3	; 0x03
     8e2:	9c 81       	ldd	r25, Y+4	; 0x04
     8e4:	0e 94 17 19 	call	0x322e	; 0x322e <__mulsf3>
     8e8:	6b 8b       	std	Y+19, r22	; 0x13
     8ea:	7c 8b       	std	Y+20, r23	; 0x14
     8ec:	8d 8b       	std	Y+21, r24	; 0x15
     8ee:	9e 8b       	std	Y+22, r25	; 0x16
     8f0:	8b 89       	ldd	r24, Y+19	; 0x13
     8f2:	9c 89       	ldd	r25, Y+20	; 0x14
     8f4:	ad 89       	ldd	r26, Y+21	; 0x15
     8f6:	be 89       	ldd	r27, Y+22	; 0x16
     8f8:	8d 83       	std	Y+5, r24	; 0x05
     8fa:	9e 83       	std	Y+6, r25	; 0x06
     8fc:	af 83       	std	Y+7, r26	; 0x07
     8fe:	b8 87       	std	Y+8, r27	; 0x08

00000900 <.Loc.99>:
	if (__tmp < 1.0)
     900:	20 e0       	ldi	r18, 0x00	; 0
     902:	30 e0       	ldi	r19, 0x00	; 0
     904:	40 e8       	ldi	r20, 0x80	; 128
     906:	5f e3       	ldi	r21, 0x3F	; 63
     908:	6d 81       	ldd	r22, Y+5	; 0x05
     90a:	7e 81       	ldd	r23, Y+6	; 0x06
     90c:	8f 81       	ldd	r24, Y+7	; 0x07
     90e:	98 85       	ldd	r25, Y+8	; 0x08
     910:	0e 94 ba 17 	call	0x2f74	; 0x2f74 <__cmpsf2>
     914:	88 23       	and	r24, r24
     916:	2c f4       	brge	.+10     	; 0x922 <.L77>

00000918 <.Loc.100>:
		__ticks = 1;
     918:	81 e0       	ldi	r24, 0x01	; 1
     91a:	90 e0       	ldi	r25, 0x00	; 0
     91c:	9a 87       	std	Y+10, r25	; 0x0a
     91e:	89 87       	std	Y+9, r24	; 0x09
     920:	55 c0       	rjmp	.+170    	; 0x9cc <.L69>

00000922 <.L77>:
	else if (__tmp > 65535)
     922:	20 e0       	ldi	r18, 0x00	; 0
     924:	3f ef       	ldi	r19, 0xFF	; 255
     926:	4f e7       	ldi	r20, 0x7F	; 127
     928:	57 e4       	ldi	r21, 0x47	; 71
     92a:	6d 81       	ldd	r22, Y+5	; 0x05
     92c:	7e 81       	ldd	r23, Y+6	; 0x06
     92e:	8f 81       	ldd	r24, Y+7	; 0x07
     930:	98 85       	ldd	r25, Y+8	; 0x08
     932:	0e 94 12 19 	call	0x3224	; 0x3224 <__gesf2>
     936:	88 23       	and	r24, r24
     938:	d9 f1       	breq	.+118    	; 0x9b0 <.L78>
     93a:	d4 f1       	brlt	.+116    	; 0x9b0 <.L78>

0000093c <.Loc.102>:
		__ticks = (uint16_t) (__ms * 10.0);
     93c:	20 e0       	ldi	r18, 0x00	; 0
     93e:	30 e0       	ldi	r19, 0x00	; 0
     940:	40 e2       	ldi	r20, 0x20	; 32
     942:	51 e4       	ldi	r21, 0x41	; 65
     944:	69 81       	ldd	r22, Y+1	; 0x01
     946:	7a 81       	ldd	r23, Y+2	; 0x02
     948:	8b 81       	ldd	r24, Y+3	; 0x03
     94a:	9c 81       	ldd	r25, Y+4	; 0x04
     94c:	0e 94 17 19 	call	0x322e	; 0x322e <__mulsf3>
     950:	6f 8b       	std	Y+23, r22	; 0x17
     952:	78 8f       	std	Y+24, r23	; 0x18
     954:	89 8f       	std	Y+25, r24	; 0x19
     956:	9a 8f       	std	Y+26, r25	; 0x1a
     958:	8f 89       	ldd	r24, Y+23	; 0x17
     95a:	98 8d       	ldd	r25, Y+24	; 0x18
     95c:	a9 8d       	ldd	r26, Y+25	; 0x19
     95e:	ba 8d       	ldd	r27, Y+26	; 0x1a
     960:	8f 87       	std	Y+15, r24	; 0x0f
     962:	98 8b       	std	Y+16, r25	; 0x10
     964:	a9 8b       	std	Y+17, r26	; 0x11
     966:	ba 8b       	std	Y+18, r27	; 0x12

00000968 <.Loc.103>:
     968:	6f 85       	ldd	r22, Y+15	; 0x0f
     96a:	78 89       	ldd	r23, Y+16	; 0x10
     96c:	89 89       	ldd	r24, Y+17	; 0x11
     96e:	9a 89       	ldd	r25, Y+18	; 0x12
     970:	0e 94 31 18 	call	0x3062	; 0x3062 <__fixunssfsi>
     974:	6b 8f       	std	Y+27, r22	; 0x1b
     976:	7c 8f       	std	Y+28, r23	; 0x1c
     978:	8d 8f       	std	Y+29, r24	; 0x1d
     97a:	9e 8f       	std	Y+30, r25	; 0x1e
     97c:	ab 8d       	ldd	r26, Y+27	; 0x1b
     97e:	bc 8d       	ldd	r27, Y+28	; 0x1c
     980:	ba 87       	std	Y+10, r27	; 0x0a
     982:	a9 87       	std	Y+9, r26	; 0x09

00000984 <.Loc.104>:
		while(__ticks)
     984:	10 c0       	rjmp	.+32     	; 0x9a6 <.L72>

00000986 <.L73>:
     986:	80 e9       	ldi	r24, 0x90	; 144
     988:	91 e0       	ldi	r25, 0x01	; 1
     98a:	9c 87       	std	Y+12, r25	; 0x0c
     98c:	8b 87       	std	Y+11, r24	; 0x0b

0000098e <.LBB74>:
     98e:	8b 85       	ldd	r24, Y+11	; 0x0b
     990:	9c 85       	ldd	r25, Y+12	; 0x0c

00000992 <.L1^B11>:
     992:	01 97       	sbiw	r24, 0x01	; 1
     994:	f1 f7       	brne	.-4      	; 0x992 <.L1^B11>
     996:	9c 87       	std	Y+12, r25	; 0x0c
     998:	8b 87       	std	Y+11, r24	; 0x0b

0000099a <.Loc.106>:
	...

0000099c <.LBE74>:
			__ticks --;
     99c:	89 85       	ldd	r24, Y+9	; 0x09
     99e:	9a 85       	ldd	r25, Y+10	; 0x0a
     9a0:	01 97       	sbiw	r24, 0x01	; 1
     9a2:	9a 87       	std	Y+10, r25	; 0x0a
     9a4:	89 87       	std	Y+9, r24	; 0x09

000009a6 <.L72>:
		while(__ticks)
     9a6:	89 85       	ldd	r24, Y+9	; 0x09
     9a8:	9a 85       	ldd	r25, Y+10	; 0x0a
     9aa:	00 97       	sbiw	r24, 0x00	; 0
     9ac:	61 f7       	brne	.-40     	; 0x986 <.L73>

000009ae <.Loc.109>:
		return;
     9ae:	19 c0       	rjmp	.+50     	; 0x9e2 <.L74>

000009b0 <.L78>:
		__ticks = (uint16_t)__tmp;
     9b0:	6d 81       	ldd	r22, Y+5	; 0x05
     9b2:	7e 81       	ldd	r23, Y+6	; 0x06
     9b4:	8f 81       	ldd	r24, Y+7	; 0x07
     9b6:	98 85       	ldd	r25, Y+8	; 0x08
     9b8:	0e 94 31 18 	call	0x3062	; 0x3062 <__fixunssfsi>
     9bc:	6f 8f       	std	Y+31, r22	; 0x1f
     9be:	78 a3       	std	Y+32, r23	; 0x20
     9c0:	89 a3       	std	Y+33, r24	; 0x21
     9c2:	9a a3       	std	Y+34, r25	; 0x22
     9c4:	8f 8d       	ldd	r24, Y+31	; 0x1f
     9c6:	98 a1       	ldd	r25, Y+32	; 0x20
     9c8:	9a 87       	std	Y+10, r25	; 0x0a
     9ca:	89 87       	std	Y+9, r24	; 0x09

000009cc <.L69>:
     9cc:	89 85       	ldd	r24, Y+9	; 0x09
     9ce:	9a 85       	ldd	r25, Y+10	; 0x0a
     9d0:	9e 87       	std	Y+14, r25	; 0x0e
     9d2:	8d 87       	std	Y+13, r24	; 0x0d

000009d4 <.LBB76>:
     9d4:	8d 85       	ldd	r24, Y+13	; 0x0d
     9d6:	9e 85       	ldd	r25, Y+14	; 0x0e

000009d8 <.L1^B12>:
     9d8:	01 97       	sbiw	r24, 0x01	; 1
     9da:	f1 f7       	brne	.-4      	; 0x9d8 <.L1^B12>
     9dc:	9e 87       	std	Y+14, r25	; 0x0e
     9de:	8d 87       	std	Y+13, r24	; 0x0d

000009e0 <.Loc.112>:
	...

000009e2 <.L74>:
    _delay_ms(100);
}
     9e2:	00 00       	nop
     9e4:	a2 96       	adiw	r28, 0x22	; 34
     9e6:	0f b6       	in	r0, 0x3f	; 63
     9e8:	f8 94       	cli
     9ea:	de bf       	out	0x3e, r29	; 62
     9ec:	0f be       	out	0x3f, r0	; 63
     9ee:	cd bf       	out	0x3d, r28	; 61
     9f0:	df 91       	pop	r29
     9f2:	cf 91       	pop	r28
     9f4:	08 95       	ret

000009f6 <init_motors>:

void init_motors(void)
{
     9f6:	cf 93       	push	r28
     9f8:	df 93       	push	r29
     9fa:	cd b7       	in	r28, 0x3d	; 61
     9fc:	de b7       	in	r29, 0x3e	; 62

000009fe <.Loc.115>:
    DDRL |= (1 << IN1) | (1 << IN2);
     9fe:	8a e0       	ldi	r24, 0x0A	; 10
     a00:	91 e0       	ldi	r25, 0x01	; 1
     a02:	fc 01       	movw	r30, r24
     a04:	20 81       	ld	r18, Z
     a06:	8a e0       	ldi	r24, 0x0A	; 10
     a08:	91 e0       	ldi	r25, 0x01	; 1

00000a0a <.Loc.116>:
     a0a:	25 60       	ori	r18, 0x05	; 5
     a0c:	fc 01       	movw	r30, r24
     a0e:	20 83       	st	Z, r18

00000a10 <.Loc.117>:
    DDRB |= (1 << IN3) | (1 << IN4);
     a10:	84 e2       	ldi	r24, 0x24	; 36
     a12:	90 e0       	ldi	r25, 0x00	; 0
     a14:	fc 01       	movw	r30, r24
     a16:	20 81       	ld	r18, Z
     a18:	84 e2       	ldi	r24, 0x24	; 36
     a1a:	90 e0       	ldi	r25, 0x00	; 0

00000a1c <.Loc.118>:
     a1c:	25 60       	ori	r18, 0x05	; 5
     a1e:	fc 01       	movw	r30, r24
     a20:	20 83       	st	Z, r18

00000a22 <.Loc.119>:

    DDRH |= (1 << EN_A);
     a22:	81 e0       	ldi	r24, 0x01	; 1
     a24:	91 e0       	ldi	r25, 0x01	; 1
     a26:	fc 01       	movw	r30, r24
     a28:	20 81       	ld	r18, Z
     a2a:	81 e0       	ldi	r24, 0x01	; 1
     a2c:	91 e0       	ldi	r25, 0x01	; 1

00000a2e <.Loc.120>:
     a2e:	20 64       	ori	r18, 0x40	; 64
     a30:	fc 01       	movw	r30, r24
     a32:	20 83       	st	Z, r18

00000a34 <.Loc.121>:
    DDRE |= (1 << EN_B);
     a34:	8d e2       	ldi	r24, 0x2D	; 45
     a36:	90 e0       	ldi	r25, 0x00	; 0
     a38:	fc 01       	movw	r30, r24
     a3a:	20 81       	ld	r18, Z
     a3c:	8d e2       	ldi	r24, 0x2D	; 45
     a3e:	90 e0       	ldi	r25, 0x00	; 0

00000a40 <.Loc.122>:
     a40:	28 60       	ori	r18, 0x08	; 8
     a42:	fc 01       	movw	r30, r24
     a44:	20 83       	st	Z, r18

00000a46 <.Loc.123>:

    TCCR2A |= (1 << WGM20) | (1 << WGM21);
     a46:	80 eb       	ldi	r24, 0xB0	; 176
     a48:	90 e0       	ldi	r25, 0x00	; 0
     a4a:	fc 01       	movw	r30, r24
     a4c:	20 81       	ld	r18, Z
     a4e:	80 eb       	ldi	r24, 0xB0	; 176
     a50:	90 e0       	ldi	r25, 0x00	; 0

00000a52 <.Loc.124>:
     a52:	23 60       	ori	r18, 0x03	; 3
     a54:	fc 01       	movw	r30, r24
     a56:	20 83       	st	Z, r18

00000a58 <.Loc.125>:
    TCCR2A |= (1 << COM2B1);
     a58:	80 eb       	ldi	r24, 0xB0	; 176
     a5a:	90 e0       	ldi	r25, 0x00	; 0
     a5c:	fc 01       	movw	r30, r24
     a5e:	20 81       	ld	r18, Z
     a60:	80 eb       	ldi	r24, 0xB0	; 176
     a62:	90 e0       	ldi	r25, 0x00	; 0

00000a64 <.Loc.126>:
     a64:	20 62       	ori	r18, 0x20	; 32
     a66:	fc 01       	movw	r30, r24
     a68:	20 83       	st	Z, r18

00000a6a <.Loc.127>:
    TCCR2B |= (1 << CS21);
     a6a:	81 eb       	ldi	r24, 0xB1	; 177
     a6c:	90 e0       	ldi	r25, 0x00	; 0
     a6e:	fc 01       	movw	r30, r24
     a70:	20 81       	ld	r18, Z
     a72:	81 eb       	ldi	r24, 0xB1	; 177
     a74:	90 e0       	ldi	r25, 0x00	; 0

00000a76 <.Loc.128>:
     a76:	22 60       	ori	r18, 0x02	; 2
     a78:	fc 01       	movw	r30, r24
     a7a:	20 83       	st	Z, r18

00000a7c <.Loc.129>:

    TCCR3A |= (1 << WGM30) | (1 << WGM32);
     a7c:	80 e9       	ldi	r24, 0x90	; 144
     a7e:	90 e0       	ldi	r25, 0x00	; 0
     a80:	fc 01       	movw	r30, r24
     a82:	20 81       	ld	r18, Z
     a84:	80 e9       	ldi	r24, 0x90	; 144
     a86:	90 e0       	ldi	r25, 0x00	; 0

00000a88 <.Loc.130>:
     a88:	29 60       	ori	r18, 0x09	; 9
     a8a:	fc 01       	movw	r30, r24
     a8c:	20 83       	st	Z, r18

00000a8e <.Loc.131>:
    TCCR3A |= (1 << COM3A1);
     a8e:	80 e9       	ldi	r24, 0x90	; 144
     a90:	90 e0       	ldi	r25, 0x00	; 0
     a92:	fc 01       	movw	r30, r24
     a94:	20 81       	ld	r18, Z
     a96:	80 e9       	ldi	r24, 0x90	; 144
     a98:	90 e0       	ldi	r25, 0x00	; 0

00000a9a <.Loc.132>:
     a9a:	20 68       	ori	r18, 0x80	; 128
     a9c:	fc 01       	movw	r30, r24
     a9e:	20 83       	st	Z, r18

00000aa0 <.Loc.133>:
    TCCR3B |= (1 << CS31);
     aa0:	81 e9       	ldi	r24, 0x91	; 145
     aa2:	90 e0       	ldi	r25, 0x00	; 0
     aa4:	fc 01       	movw	r30, r24
     aa6:	20 81       	ld	r18, Z
     aa8:	81 e9       	ldi	r24, 0x91	; 145
     aaa:	90 e0       	ldi	r25, 0x00	; 0

00000aac <.Loc.134>:
     aac:	22 60       	ori	r18, 0x02	; 2
     aae:	fc 01       	movw	r30, r24
     ab0:	20 83       	st	Z, r18

00000ab2 <.Loc.135>:

    OCR2B = 0;
     ab2:	84 eb       	ldi	r24, 0xB4	; 180
     ab4:	90 e0       	ldi	r25, 0x00	; 0

00000ab6 <.Loc.136>:
     ab6:	fc 01       	movw	r30, r24
     ab8:	10 82       	st	Z, r1

00000aba <.Loc.137>:
    OCR3A = 0;
     aba:	88 e9       	ldi	r24, 0x98	; 152
     abc:	90 e0       	ldi	r25, 0x00	; 0

00000abe <.Loc.138>:
     abe:	fc 01       	movw	r30, r24
     ac0:	11 82       	std	Z+1, r1	; 0x01
     ac2:	10 82       	st	Z, r1

00000ac4 <.Loc.139>:
}
     ac4:	00 00       	nop
     ac6:	df 91       	pop	r29
     ac8:	cf 91       	pop	r28
     aca:	08 95       	ret

00000acc <set_motor_speed>:

void set_motor_speed(uint8_t motor, uint8_t speed)
{
     acc:	cf 93       	push	r28
     ace:	df 93       	push	r29
     ad0:	0f 92       	push	r0
     ad2:	0f 92       	push	r0
     ad4:	cd b7       	in	r28, 0x3d	; 61
     ad6:	de b7       	in	r29, 0x3e	; 62
     ad8:	89 83       	std	Y+1, r24	; 0x01
     ada:	6a 83       	std	Y+2, r22	; 0x02

00000adc <.Loc.141>:
    if (motor == 1)
     adc:	89 81       	ldd	r24, Y+1	; 0x01
     ade:	81 30       	cpi	r24, 0x01	; 1
     ae0:	29 f4       	brne	.+10     	; 0xaec <.L81>

00000ae2 <.Loc.142>:
        {
            OCR2B = speed;
     ae2:	84 eb       	ldi	r24, 0xB4	; 180
     ae4:	90 e0       	ldi	r25, 0x00	; 0

00000ae6 <.Loc.143>:
     ae6:	2a 81       	ldd	r18, Y+2	; 0x02
     ae8:	fc 01       	movw	r30, r24
     aea:	20 83       	st	Z, r18

00000aec <.L81>:
        }
    if (motor == 2)
     aec:	89 81       	ldd	r24, Y+1	; 0x01
     aee:	82 30       	cpi	r24, 0x02	; 2
     af0:	41 f4       	brne	.+16     	; 0xb02 <.L83>

00000af2 <.Loc.145>:
        {
            OCR3A = speed;
     af2:	88 e9       	ldi	r24, 0x98	; 152
     af4:	90 e0       	ldi	r25, 0x00	; 0

00000af6 <.Loc.146>:
     af6:	2a 81       	ldd	r18, Y+2	; 0x02
     af8:	22 2f       	mov	r18, r18
     afa:	30 e0       	ldi	r19, 0x00	; 0
     afc:	fc 01       	movw	r30, r24
     afe:	31 83       	std	Z+1, r19	; 0x01
     b00:	20 83       	st	Z, r18

00000b02 <.L83>:
        }
}
     b02:	00 00       	nop
     b04:	0f 90       	pop	r0
     b06:	0f 90       	pop	r0
     b08:	df 91       	pop	r29
     b0a:	cf 91       	pop	r28
     b0c:	08 95       	ret

00000b0e <set_motor_direction>:

void set_motor_direction(uint8_t motor, uint8_t direction)
{
     b0e:	cf 93       	push	r28
     b10:	df 93       	push	r29
     b12:	0f 92       	push	r0
     b14:	0f 92       	push	r0
     b16:	cd b7       	in	r28, 0x3d	; 61
     b18:	de b7       	in	r29, 0x3e	; 62
     b1a:	89 83       	std	Y+1, r24	; 0x01
     b1c:	6a 83       	std	Y+2, r22	; 0x02

00000b1e <.Loc.149>:
    if (motor == 1)
     b1e:	89 81       	ldd	r24, Y+1	; 0x01
     b20:	81 30       	cpi	r24, 0x01	; 1
     b22:	b1 f4       	brne	.+44     	; 0xb50 <.L85>

00000b24 <.Loc.150>:
    {
        if (direction == 1)
     b24:	8a 81       	ldd	r24, Y+2	; 0x02
     b26:	81 30       	cpi	r24, 0x01	; 1
     b28:	59 f5       	brne	.+86     	; 0xb80 <.L87>

00000b2a <.Loc.151>:
        {
            PORTL |= (1 << IN1);
     b2a:	8b e0       	ldi	r24, 0x0B	; 11
     b2c:	91 e0       	ldi	r25, 0x01	; 1
     b2e:	fc 01       	movw	r30, r24
     b30:	20 81       	ld	r18, Z
     b32:	8b e0       	ldi	r24, 0x0B	; 11
     b34:	91 e0       	ldi	r25, 0x01	; 1

00000b36 <.Loc.152>:
     b36:	24 60       	ori	r18, 0x04	; 4
     b38:	fc 01       	movw	r30, r24
     b3a:	20 83       	st	Z, r18

00000b3c <.Loc.153>:
            PORTL &= ~(1 << IN2);
     b3c:	8b e0       	ldi	r24, 0x0B	; 11
     b3e:	91 e0       	ldi	r25, 0x01	; 1
     b40:	fc 01       	movw	r30, r24
     b42:	20 81       	ld	r18, Z

00000b44 <.Loc.154>:
     b44:	8b e0       	ldi	r24, 0x0B	; 11
     b46:	91 e0       	ldi	r25, 0x01	; 1

00000b48 <.Loc.155>:
     b48:	2e 7f       	andi	r18, 0xFE	; 254
     b4a:	fc 01       	movw	r30, r24
     b4c:	20 83       	st	Z, r18

00000b4e <.Loc.156>:
        {
            PORTB |= (1 << IN3);
            PORTB &= ~(1 << IN4);
        }
    }
}
     b4e:	18 c0       	rjmp	.+48     	; 0xb80 <.L87>

00000b50 <.L85>:
    else if (motor == 2)
     b50:	89 81       	ldd	r24, Y+1	; 0x01
     b52:	82 30       	cpi	r24, 0x02	; 2
     b54:	a9 f4       	brne	.+42     	; 0xb80 <.L87>

00000b56 <.Loc.158>:
        if (direction == 1)
     b56:	8a 81       	ldd	r24, Y+2	; 0x02
     b58:	81 30       	cpi	r24, 0x01	; 1
     b5a:	91 f4       	brne	.+36     	; 0xb80 <.L87>

00000b5c <.Loc.159>:
            PORTB |= (1 << IN3);
     b5c:	85 e2       	ldi	r24, 0x25	; 37
     b5e:	90 e0       	ldi	r25, 0x00	; 0
     b60:	fc 01       	movw	r30, r24
     b62:	20 81       	ld	r18, Z
     b64:	85 e2       	ldi	r24, 0x25	; 37
     b66:	90 e0       	ldi	r25, 0x00	; 0

00000b68 <.Loc.160>:
     b68:	24 60       	ori	r18, 0x04	; 4
     b6a:	fc 01       	movw	r30, r24
     b6c:	20 83       	st	Z, r18

00000b6e <.Loc.161>:
            PORTB &= ~(1 << IN4);
     b6e:	85 e2       	ldi	r24, 0x25	; 37
     b70:	90 e0       	ldi	r25, 0x00	; 0
     b72:	fc 01       	movw	r30, r24
     b74:	20 81       	ld	r18, Z

00000b76 <.Loc.162>:
     b76:	85 e2       	ldi	r24, 0x25	; 37
     b78:	90 e0       	ldi	r25, 0x00	; 0

00000b7a <.Loc.163>:
     b7a:	2e 7f       	andi	r18, 0xFE	; 254
     b7c:	fc 01       	movw	r30, r24
     b7e:	20 83       	st	Z, r18

00000b80 <.L87>:
}
     b80:	00 00       	nop
     b82:	0f 90       	pop	r0
     b84:	0f 90       	pop	r0
     b86:	df 91       	pop	r29
     b88:	cf 91       	pop	r28
     b8a:	08 95       	ret

00000b8c <initm>:

void initm(void)
{
     b8c:	cf 93       	push	r28
     b8e:	df 93       	push	r29
     b90:	cd b7       	in	r28, 0x3d	; 61
     b92:	de b7       	in	r29, 0x3e	; 62

00000b94 <.Loc.166>:
    set_motor_direction(1, 1);
     b94:	61 e0       	ldi	r22, 0x01	; 1
     b96:	81 e0       	ldi	r24, 0x01	; 1
     b98:	0e 94 87 05 	call	0xb0e	; 0xb0e <set_motor_direction>

00000b9c <.Loc.167>:
    set_motor_direction(2, 1);
     b9c:	61 e0       	ldi	r22, 0x01	; 1
     b9e:	82 e0       	ldi	r24, 0x02	; 2
     ba0:	0e 94 87 05 	call	0xb0e	; 0xb0e <set_motor_direction>

00000ba4 <.Loc.168>:
}
     ba4:	00 00       	nop
     ba6:	df 91       	pop	r29
     ba8:	cf 91       	pop	r28
     baa:	08 95       	ret

00000bac <init_infrared>:
#include <avr/io.h>
#include "infrared.h"

void init_infrared(void)
{
     bac:	cf 93       	push	r28
     bae:	df 93       	push	r29
     bb0:	cd b7       	in	r28, 0x3d	; 61
     bb2:	de b7       	in	r29, 0x3e	; 62

00000bb4 <.Loc.1>:
    DDRF &= ~(1 << INFRARED_PIN); // Set as input
     bb4:	80 e3       	ldi	r24, 0x30	; 48
     bb6:	90 e0       	ldi	r25, 0x00	; 0
     bb8:	fc 01       	movw	r30, r24
     bba:	20 81       	ld	r18, Z

00000bbc <.Loc.2>:
     bbc:	80 e3       	ldi	r24, 0x30	; 48
     bbe:	90 e0       	ldi	r25, 0x00	; 0

00000bc0 <.Loc.3>:
     bc0:	2f 7d       	andi	r18, 0xDF	; 223
     bc2:	fc 01       	movw	r30, r24
     bc4:	20 83       	st	Z, r18

00000bc6 <.Loc.4>:
    DDRF &= ~(1 << INFRARED2_PIN);
     bc6:	80 e3       	ldi	r24, 0x30	; 48
     bc8:	90 e0       	ldi	r25, 0x00	; 0
     bca:	fc 01       	movw	r30, r24
     bcc:	20 81       	ld	r18, Z

00000bce <.Loc.5>:
     bce:	80 e3       	ldi	r24, 0x30	; 48
     bd0:	90 e0       	ldi	r25, 0x00	; 0

00000bd2 <.Loc.6>:
     bd2:	2f 7b       	andi	r18, 0xBF	; 191
     bd4:	fc 01       	movw	r30, r24
     bd6:	20 83       	st	Z, r18

00000bd8 <.Loc.7>:
}
     bd8:	00 00       	nop
     bda:	df 91       	pop	r29
     bdc:	cf 91       	pop	r28
     bde:	08 95       	ret

00000be0 <read_ir_left>:

int read_ir_left(void)
{
     be0:	cf 93       	push	r28
     be2:	df 93       	push	r29
     be4:	cd b7       	in	r28, 0x3d	; 61
     be6:	de b7       	in	r29, 0x3e	; 62

00000be8 <.Loc.9>:
    return (PINF & (1 << INFRARED_PIN)) == 0;
     be8:	8f e2       	ldi	r24, 0x2F	; 47
     bea:	90 e0       	ldi	r25, 0x00	; 0
     bec:	fc 01       	movw	r30, r24
     bee:	80 81       	ld	r24, Z

00000bf0 <.Loc.10>:
     bf0:	88 2f       	mov	r24, r24
     bf2:	90 e0       	ldi	r25, 0x00	; 0
     bf4:	80 72       	andi	r24, 0x20	; 32
     bf6:	99 27       	eor	r25, r25

00000bf8 <.Loc.11>:
     bf8:	21 e0       	ldi	r18, 0x01	; 1
     bfa:	00 97       	sbiw	r24, 0x00	; 0
     bfc:	09 f0       	breq	.+2      	; 0xc00 <.L3>
     bfe:	20 e0       	ldi	r18, 0x00	; 0

00000c00 <.L3>:
     c00:	82 2f       	mov	r24, r18
     c02:	90 e0       	ldi	r25, 0x00	; 0

00000c04 <.Loc.12>:
}
     c04:	df 91       	pop	r29
     c06:	cf 91       	pop	r28
     c08:	08 95       	ret

00000c0a <read_ir_right>:
int read_ir_right(void)
{
     c0a:	cf 93       	push	r28
     c0c:	df 93       	push	r29
     c0e:	cd b7       	in	r28, 0x3d	; 61
     c10:	de b7       	in	r29, 0x3e	; 62

00000c12 <.Loc.14>:
    return (PINF & (1 << INFRARED2_PIN)) == 0;
     c12:	8f e2       	ldi	r24, 0x2F	; 47
     c14:	90 e0       	ldi	r25, 0x00	; 0
     c16:	fc 01       	movw	r30, r24
     c18:	80 81       	ld	r24, Z

00000c1a <.Loc.15>:
     c1a:	88 2f       	mov	r24, r24
     c1c:	90 e0       	ldi	r25, 0x00	; 0
     c1e:	80 74       	andi	r24, 0x40	; 64
     c20:	99 27       	eor	r25, r25

00000c22 <.Loc.16>:
     c22:	21 e0       	ldi	r18, 0x01	; 1
     c24:	00 97       	sbiw	r24, 0x00	; 0
     c26:	09 f0       	breq	.+2      	; 0xc2a <.L6>
     c28:	20 e0       	ldi	r18, 0x00	; 0

00000c2a <.L6>:
     c2a:	82 2f       	mov	r24, r18
     c2c:	90 e0       	ldi	r25, 0x00	; 0

00000c2e <.Loc.17>:
}
     c2e:	df 91       	pop	r29
     c30:	cf 91       	pop	r28
     c32:	08 95       	ret

00000c34 <button_pressed>:
volatile uint16_t ir_left_detected_flag = 0;
volatile uint16_t ir_right_detected_flag = 0;
volatile uint16_t path_exit_flag = 0;
volatile uint16_t agv_can_go = 1; // Initialize to 1 to allow AGV to move initially

int button_pressed(void) {
     c34:	cf 93       	push	r28
     c36:	df 93       	push	r29
     c38:	cd b7       	in	r28, 0x3d	; 61
     c3a:	de b7       	in	r29, 0x3e	; 62

00000c3c <.Loc.1>:
    return (PINB & (1 << PB6)) == 0;
     c3c:	83 e2       	ldi	r24, 0x23	; 35
     c3e:	90 e0       	ldi	r25, 0x00	; 0
     c40:	fc 01       	movw	r30, r24
     c42:	80 81       	ld	r24, Z

00000c44 <.Loc.2>:
     c44:	88 2f       	mov	r24, r24
     c46:	90 e0       	ldi	r25, 0x00	; 0
     c48:	80 74       	andi	r24, 0x40	; 64
     c4a:	99 27       	eor	r25, r25

00000c4c <.Loc.3>:
     c4c:	21 e0       	ldi	r18, 0x01	; 1
     c4e:	00 97       	sbiw	r24, 0x00	; 0
     c50:	09 f0       	breq	.+2      	; 0xc54 <.L2>
     c52:	20 e0       	ldi	r18, 0x00	; 0

00000c54 <.L2>:
     c54:	82 2f       	mov	r24, r18
     c56:	90 e0       	ldi	r25, 0x00	; 0

00000c58 <.Loc.4>:
}
     c58:	df 91       	pop	r29
     c5a:	cf 91       	pop	r28
     c5c:	08 95       	ret

00000c5e <init>:

// Initialize system
void init(void) {
     c5e:	cf 93       	push	r28
     c60:	df 93       	push	r29
     c62:	cd b7       	in	r28, 0x3d	; 61
     c64:	de b7       	in	r29, 0x3e	; 62

00000c66 <.Loc.6>:
    // Initialize peripherals
    initm();
     c66:	0e 94 c6 05 	call	0xb8c	; 0xb8c <initm>

00000c6a <.Loc.7>:
    init_motors();
     c6a:	0e 94 fb 04 	call	0x9f6	; 0x9f6 <init_motors>

00000c6e <.Loc.8>:
    init_infrared();
     c6e:	0e 94 d6 05 	call	0xbac	; 0xbac <init_infrared>

00000c72 <.Loc.9>:
    init_ultrasonics();
     c72:	0e 94 e8 10 	call	0x21d0	; 0x21d0 <init_ultrasonics>

00000c76 <.Loc.10>:
    init_timer_buzzer();
     c76:	0e 94 e3 00 	call	0x1c6	; 0x1c6 <init_timer_buzzer>

00000c7a <.Loc.11>:

    // Initialize Timer0 for ultrasonic delay and cool-down
    TCCR0A = (1 << WGM01); // CTC mode
     c7a:	84 e4       	ldi	r24, 0x44	; 68
     c7c:	90 e0       	ldi	r25, 0x00	; 0

00000c7e <.Loc.12>:
     c7e:	22 e0       	ldi	r18, 0x02	; 2
     c80:	fc 01       	movw	r30, r24
     c82:	20 83       	st	Z, r18

00000c84 <.Loc.13>:
    TCCR0B = (1 << CS02) | (1 << CS00); // Prescaler 1024
     c84:	85 e4       	ldi	r24, 0x45	; 69
     c86:	90 e0       	ldi	r25, 0x00	; 0

00000c88 <.Loc.14>:
     c88:	25 e0       	ldi	r18, 0x05	; 5
     c8a:	fc 01       	movw	r30, r24
     c8c:	20 83       	st	Z, r18

00000c8e <.Loc.15>:
    OCR0A = 156; // 10ms interval (16000000/1024/100)
     c8e:	87 e4       	ldi	r24, 0x47	; 71
     c90:	90 e0       	ldi	r25, 0x00	; 0

00000c92 <.Loc.16>:
     c92:	2c e9       	ldi	r18, 0x9C	; 156
     c94:	fc 01       	movw	r30, r24
     c96:	20 83       	st	Z, r18

00000c98 <.Loc.17>:
    TIMSK0 |= (1 << OCIE0A); // Enable Timer0 compare match A interrupt
     c98:	8e e6       	ldi	r24, 0x6E	; 110
     c9a:	90 e0       	ldi	r25, 0x00	; 0
     c9c:	fc 01       	movw	r30, r24
     c9e:	20 81       	ld	r18, Z
     ca0:	8e e6       	ldi	r24, 0x6E	; 110
     ca2:	90 e0       	ldi	r25, 0x00	; 0

00000ca4 <.Loc.18>:
     ca4:	22 60       	ori	r18, 0x02	; 2
     ca6:	fc 01       	movw	r30, r24
     ca8:	20 83       	st	Z, r18

00000caa <.Loc.19>:

    sei(); // Enable global interrupts
     caa:	78 94       	sei

00000cac <.Loc.20>:
    init_buzzer(); // Initialize the buzzer
     cac:	0e 94 95 00 	call	0x12a	; 0x12a <init_buzzer>

00000cb0 <.Loc.21>:
    buzzer_uit();  // Ensure the buzzer is off
     cb0:	0e 94 c0 00 	call	0x180	; 0x180 <buzzer_uit>

00000cb4 <.Loc.22>:
}
     cb4:	00 00       	nop
     cb6:	df 91       	pop	r29
     cb8:	cf 91       	pop	r28
     cba:	08 95       	ret

00000cbc <__vector_21>:

// Timer0 compare match interrupt service routine
ISR(TIMER0_COMPA_vect) {
     cbc:	1f 92       	push	r1
     cbe:	0f 92       	push	r0
     cc0:	0f b6       	in	r0, 0x3f	; 63
     cc2:	0f 92       	push	r0
     cc4:	11 24       	eor	r1, r1
     cc6:	0b b6       	in	r0, 0x3b	; 59
     cc8:	0f 92       	push	r0
     cca:	2f 93       	push	r18
     ccc:	3f 93       	push	r19
     cce:	4f 93       	push	r20
     cd0:	5f 93       	push	r21
     cd2:	6f 93       	push	r22
     cd4:	7f 93       	push	r23
     cd6:	8f 93       	push	r24
     cd8:	9f 93       	push	r25
     cda:	af 93       	push	r26
     cdc:	bf 93       	push	r27
     cde:	ef 93       	push	r30
     ce0:	ff 93       	push	r31
     ce2:	cf 93       	push	r28
     ce4:	df 93       	push	r29
     ce6:	cd b7       	in	r28, 0x3d	; 61
     ce8:	de b7       	in	r29, 0x3e	; 62

00000cea <.Loc.24>:
    static uint8_t tick_count = 0;

    if (boom_detected_flag) {
     cea:	80 91 02 02 	lds	r24, 0x0202	; 0x800202 <boom_detected_flag>

00000cee <.Loc.25>:
     cee:	88 23       	and	r24, r24
     cf0:	41 f1       	breq	.+80     	; 0xd42 <.L6>

00000cf2 <.Loc.26>:
        tick_count++;
     cf2:	80 91 0e 02 	lds	r24, 0x020E	; 0x80020e <tick_count.0>
     cf6:	8f 5f       	subi	r24, 0xFF	; 255
     cf8:	80 93 0e 02 	sts	0x020E, r24	; 0x80020e <tick_count.0>

00000cfc <.Loc.27>:

        if (tick_count % 75 == 0) { // Toggle buzzer every 750ms
     cfc:	90 91 0e 02 	lds	r25, 0x020E	; 0x80020e <tick_count.0>
     d00:	8b ed       	ldi	r24, 0xDB	; 219
     d02:	98 9f       	mul	r25, r24
     d04:	81 2d       	mov	r24, r1
     d06:	11 24       	eor	r1, r1
     d08:	82 95       	swap	r24
     d0a:	86 95       	lsr	r24
     d0c:	86 95       	lsr	r24
     d0e:	83 70       	andi	r24, 0x03	; 3
     d10:	2b e4       	ldi	r18, 0x4B	; 75
     d12:	82 9f       	mul	r24, r18
     d14:	80 2d       	mov	r24, r0
     d16:	11 24       	eor	r1, r1
     d18:	29 2f       	mov	r18, r25
     d1a:	28 1b       	sub	r18, r24
     d1c:	82 2f       	mov	r24, r18

00000d1e <.Loc.28>:
     d1e:	88 23       	and	r24, r24
     d20:	11 f4       	brne	.+4      	; 0xd26 <.L7>

00000d22 <.Loc.29>:
            buzzer_toggle();
     d22:	0e 94 d1 00 	call	0x1a2	; 0x1a2 <buzzer_toggle>

00000d26 <.L7>:
        }

        if (tick_count >= 150) { // 1.5 seconds
     d26:	80 91 0e 02 	lds	r24, 0x020E	; 0x80020e <tick_count.0>

00000d2a <.Loc.31>:
     d2a:	85 39       	cpi	r24, 0x95	; 149
     d2c:	51 f0       	breq	.+20     	; 0xd42 <.L6>
     d2e:	48 f0       	brcs	.+18     	; 0xd42 <.L6>

00000d30 <.Loc.32>:
            boom_detected_flag = 0;
     d30:	10 92 02 02 	sts	0x0202, r1	; 0x800202 <boom_detected_flag>

00000d34 <.Loc.33>:
            cool_down_flag = 1;
     d34:	81 e0       	ldi	r24, 0x01	; 1
     d36:	80 93 03 02 	sts	0x0203, r24	; 0x800203 <cool_down_flag>

00000d3a <.Loc.34>:
            tick_count = 0;
     d3a:	10 92 0e 02 	sts	0x020E, r1	; 0x80020e <tick_count.0>

00000d3e <.Loc.35>:
            buzzer_uit();
     d3e:	0e 94 c0 00 	call	0x180	; 0x180 <buzzer_uit>

00000d42 <.L6>:
        }
    }

    if (cool_down_flag) {
     d42:	80 91 03 02 	lds	r24, 0x0203	; 0x800203 <cool_down_flag>

00000d46 <.Loc.37>:
     d46:	88 23       	and	r24, r24
     d48:	f9 f0       	breq	.+62     	; 0xd88 <.L9>

00000d4a <.Loc.38>:
        cool_down_counter++;
     d4a:	80 91 04 02 	lds	r24, 0x0204	; 0x800204 <cool_down_counter>
     d4e:	90 91 05 02 	lds	r25, 0x0205	; 0x800205 <cool_down_counter+0x1>
     d52:	01 96       	adiw	r24, 0x01	; 1
     d54:	90 93 05 02 	sts	0x0205, r25	; 0x800205 <cool_down_counter+0x1>
     d58:	80 93 04 02 	sts	0x0204, r24	; 0x800204 <cool_down_counter>

00000d5c <.Loc.39>:
        if (cool_down_counter >= 50) { // Cool-down period of 1.5 seconds
     d5c:	80 91 04 02 	lds	r24, 0x0204	; 0x800204 <cool_down_counter>
     d60:	90 91 05 02 	lds	r25, 0x0205	; 0x800205 <cool_down_counter+0x1>

00000d64 <.Loc.40>:
     d64:	81 33       	cpi	r24, 0x31	; 49
     d66:	91 05       	cpc	r25, r1
     d68:	79 f0       	breq	.+30     	; 0xd88 <.L9>
     d6a:	70 f0       	brcs	.+28     	; 0xd88 <.L9>

00000d6c <.LBB50>:
            cool_down_flag = 0;
     d6c:	10 92 03 02 	sts	0x0203, r1	; 0x800203 <cool_down_flag>

00000d70 <.Loc.42>:
            cool_down_counter = 0;
     d70:	10 92 05 02 	sts	0x0205, r1	; 0x800205 <cool_down_counter+0x1>
     d74:	10 92 04 02 	sts	0x0204, r1	; 0x800204 <cool_down_counter>

00000d78 <.Loc.43>:
            disable_timer0();
     d78:	0e 94 da 06 	call	0xdb4	; 0xdb4 <disable_timer0>

00000d7c <.Loc.44>:
            agv_can_go = 1;
     d7c:	81 e0       	ldi	r24, 0x01	; 1
     d7e:	90 e0       	ldi	r25, 0x00	; 0
     d80:	90 93 01 02 	sts	0x0201, r25	; 0x800201 <agv_can_go+0x1>
     d84:	80 93 00 02 	sts	0x0200, r24	; 0x800200 <agv_can_go>

00000d88 <.L9>:
        }
    }
}
     d88:	00 00       	nop
     d8a:	df 91       	pop	r29
     d8c:	cf 91       	pop	r28
     d8e:	ff 91       	pop	r31
     d90:	ef 91       	pop	r30
     d92:	bf 91       	pop	r27
     d94:	af 91       	pop	r26
     d96:	9f 91       	pop	r25
     d98:	8f 91       	pop	r24
     d9a:	7f 91       	pop	r23
     d9c:	6f 91       	pop	r22
     d9e:	5f 91       	pop	r21
     da0:	4f 91       	pop	r20
     da2:	3f 91       	pop	r19
     da4:	2f 91       	pop	r18
     da6:	0f 90       	pop	r0
     da8:	0b be       	out	0x3b, r0	; 59
     daa:	0f 90       	pop	r0
     dac:	0f be       	out	0x3f, r0	; 63
     dae:	0f 90       	pop	r0
     db0:	1f 90       	pop	r1
     db2:	18 95       	reti

00000db4 <disable_timer0>:

void disable_timer0() {
     db4:	cf 93       	push	r28
     db6:	df 93       	push	r29
     db8:	cd b7       	in	r28, 0x3d	; 61
     dba:	de b7       	in	r29, 0x3e	; 62

00000dbc <.Loc.47>:
    // Clear the Clock Select bits to stop the timer
    TCCR0B &= ~((1 << CS02) | (1 << CS01) | (1 << CS00));
     dbc:	85 e4       	ldi	r24, 0x45	; 69
     dbe:	90 e0       	ldi	r25, 0x00	; 0
     dc0:	fc 01       	movw	r30, r24
     dc2:	20 81       	ld	r18, Z

00000dc4 <.Loc.48>:
     dc4:	85 e4       	ldi	r24, 0x45	; 69
     dc6:	90 e0       	ldi	r25, 0x00	; 0

00000dc8 <.Loc.49>:
     dc8:	28 7f       	andi	r18, 0xF8	; 248
     dca:	fc 01       	movw	r30, r24
     dcc:	20 83       	st	Z, r18

00000dce <.Loc.50>:

    // Disable Timer0 interrupts
    //TIMSK0 &= ~((1 << OCIE0A));
}
     dce:	00 00       	nop
     dd0:	df 91       	pop	r29
     dd2:	cf 91       	pop	r28
     dd4:	08 95       	ret

00000dd6 <main>:

int main(void) {
     dd6:	0f 93       	push	r16
     dd8:	1f 93       	push	r17
     dda:	cf 93       	push	r28
     ddc:	df 93       	push	r29
     dde:	cd b7       	in	r28, 0x3d	; 61
     de0:	de b7       	in	r29, 0x3e	; 62
     de2:	c0 51       	subi	r28, 0x10	; 16
     de4:	d1 40       	sbci	r29, 0x01	; 1
     de6:	0f b6       	in	r0, 0x3f	; 63
     de8:	f8 94       	cli
     dea:	de bf       	out	0x3e, r29	; 62
     dec:	0f be       	out	0x3f, r0	; 63
     dee:	cd bf       	out	0x3d, r28	; 61

00000df0 <.Loc.52>:
    init();
     df0:	0e 94 2f 06 	call	0xc5e	; 0xc5e <init>

00000df4 <.Loc.53>:
    uint16_t distance1, distance2, distance3;
    int button_already_pressed = 0;
     df4:	1a 82       	std	Y+2, r1	; 0x02
     df6:	19 82       	std	Y+1, r1	; 0x01

00000df8 <.L81>:

    while (1) {
        distance1 = measure_distance1();
     df8:	0e 94 41 11 	call	0x2282	; 0x2282 <measure_distance1>
     dfc:	e1 96       	adiw	r28, 0x31	; 49
     dfe:	6c af       	std	Y+60, r22	; 0x3c
     e00:	7d af       	std	Y+61, r23	; 0x3d
     e02:	8e af       	std	Y+62, r24	; 0x3e
     e04:	9f af       	std	Y+63, r25	; 0x3f
     e06:	e1 97       	sbiw	r28, 0x31	; 49

00000e08 <.Loc.55>:
     e08:	e1 96       	adiw	r28, 0x31	; 49
     e0a:	6c ad       	ldd	r22, Y+60	; 0x3c
     e0c:	7d ad       	ldd	r23, Y+61	; 0x3d
     e0e:	8e ad       	ldd	r24, Y+62	; 0x3e
     e10:	9f ad       	ldd	r25, Y+63	; 0x3f
     e12:	e1 97       	sbiw	r28, 0x31	; 49
     e14:	0e 94 31 18 	call	0x3062	; 0x3062 <__fixunssfsi>
     e18:	cb 56       	subi	r28, 0x6B	; 107
     e1a:	df 4f       	sbci	r29, 0xFF	; 255
     e1c:	68 83       	st	Y, r22
     e1e:	79 83       	std	Y+1, r23	; 0x01
     e20:	8a 83       	std	Y+2, r24	; 0x02
     e22:	9b 83       	std	Y+3, r25	; 0x03
     e24:	c5 59       	subi	r28, 0x95	; 149
     e26:	d0 40       	sbci	r29, 0x00	; 0
     e28:	cb 56       	subi	r28, 0x6B	; 107
     e2a:	df 4f       	sbci	r29, 0xFF	; 255
     e2c:	88 81       	ld	r24, Y
     e2e:	99 81       	ldd	r25, Y+1	; 0x01
     e30:	c5 59       	subi	r28, 0x95	; 149
     e32:	d0 40       	sbci	r29, 0x00	; 0
     e34:	9e 83       	std	Y+6, r25	; 0x06
     e36:	8d 83       	std	Y+5, r24	; 0x05

00000e38 <.Loc.56>:
        distance2 = measure_distance2();
     e38:	0e 94 45 13 	call	0x268a	; 0x268a <measure_distance2>
     e3c:	e5 96       	adiw	r28, 0x35	; 53
     e3e:	6c af       	std	Y+60, r22	; 0x3c
     e40:	7d af       	std	Y+61, r23	; 0x3d
     e42:	8e af       	std	Y+62, r24	; 0x3e
     e44:	9f af       	std	Y+63, r25	; 0x3f
     e46:	e5 97       	sbiw	r28, 0x35	; 53

00000e48 <.Loc.57>:
     e48:	e5 96       	adiw	r28, 0x35	; 53
     e4a:	6c ad       	ldd	r22, Y+60	; 0x3c
     e4c:	7d ad       	ldd	r23, Y+61	; 0x3d
     e4e:	8e ad       	ldd	r24, Y+62	; 0x3e
     e50:	9f ad       	ldd	r25, Y+63	; 0x3f
     e52:	e5 97       	sbiw	r28, 0x35	; 53
     e54:	0e 94 31 18 	call	0x3062	; 0x3062 <__fixunssfsi>
     e58:	c7 56       	subi	r28, 0x67	; 103
     e5a:	df 4f       	sbci	r29, 0xFF	; 255
     e5c:	68 83       	st	Y, r22
     e5e:	79 83       	std	Y+1, r23	; 0x01
     e60:	8a 83       	std	Y+2, r24	; 0x02
     e62:	9b 83       	std	Y+3, r25	; 0x03
     e64:	c9 59       	subi	r28, 0x99	; 153
     e66:	d0 40       	sbci	r29, 0x00	; 0
     e68:	c7 56       	subi	r28, 0x67	; 103
     e6a:	df 4f       	sbci	r29, 0xFF	; 255
     e6c:	a8 81       	ld	r26, Y
     e6e:	b9 81       	ldd	r27, Y+1	; 0x01
     e70:	c9 59       	subi	r28, 0x99	; 153
     e72:	d0 40       	sbci	r29, 0x00	; 0
     e74:	b8 87       	std	Y+8, r27	; 0x08
     e76:	af 83       	std	Y+7, r26	; 0x07

00000e78 <.Loc.58>:
        distance3 = measure_distance3();
     e78:	0e 94 49 15 	call	0x2a92	; 0x2a92 <measure_distance3>
     e7c:	e9 96       	adiw	r28, 0x39	; 57
     e7e:	6c af       	std	Y+60, r22	; 0x3c
     e80:	7d af       	std	Y+61, r23	; 0x3d
     e82:	8e af       	std	Y+62, r24	; 0x3e
     e84:	9f af       	std	Y+63, r25	; 0x3f
     e86:	e9 97       	sbiw	r28, 0x39	; 57

00000e88 <.Loc.59>:
     e88:	e9 96       	adiw	r28, 0x39	; 57
     e8a:	6c ad       	ldd	r22, Y+60	; 0x3c
     e8c:	7d ad       	ldd	r23, Y+61	; 0x3d
     e8e:	8e ad       	ldd	r24, Y+62	; 0x3e
     e90:	9f ad       	ldd	r25, Y+63	; 0x3f
     e92:	e9 97       	sbiw	r28, 0x39	; 57
     e94:	0e 94 31 18 	call	0x3062	; 0x3062 <__fixunssfsi>
     e98:	c3 56       	subi	r28, 0x63	; 99
     e9a:	df 4f       	sbci	r29, 0xFF	; 255
     e9c:	68 83       	st	Y, r22
     e9e:	79 83       	std	Y+1, r23	; 0x01
     ea0:	8a 83       	std	Y+2, r24	; 0x02
     ea2:	9b 83       	std	Y+3, r25	; 0x03
     ea4:	cd 59       	subi	r28, 0x9D	; 157
     ea6:	d0 40       	sbci	r29, 0x00	; 0
     ea8:	c3 56       	subi	r28, 0x63	; 99
     eaa:	df 4f       	sbci	r29, 0xFF	; 255
     eac:	e8 81       	ld	r30, Y
     eae:	f9 81       	ldd	r31, Y+1	; 0x01
     eb0:	cd 59       	subi	r28, 0x9D	; 157
     eb2:	d0 40       	sbci	r29, 0x00	; 0
     eb4:	fa 87       	std	Y+10, r31	; 0x0a
     eb6:	e9 87       	std	Y+9, r30	; 0x09

00000eb8 <.Loc.60>:

        ir_left_detected_flag = read_ir_left(); // Function to read left IR sensor
     eb8:	0e 94 f0 05 	call	0xbe0	; 0xbe0 <read_ir_left>

00000ebc <.Loc.61>:
     ebc:	90 93 09 02 	sts	0x0209, r25	; 0x800209 <ir_left_detected_flag+0x1>
     ec0:	80 93 08 02 	sts	0x0208, r24	; 0x800208 <ir_left_detected_flag>

00000ec4 <.Loc.62>:
        ir_right_detected_flag = read_ir_right(); // Function to read right IR sensor
     ec4:	0e 94 05 06 	call	0xc0a	; 0xc0a <read_ir_right>

00000ec8 <.Loc.63>:
     ec8:	90 93 0b 02 	sts	0x020B, r25	; 0x80020b <ir_right_detected_flag+0x1>
     ecc:	80 93 0a 02 	sts	0x020A, r24	; 0x80020a <ir_right_detected_flag>

00000ed0 <.Loc.64>:

        if (button_pressed() && !button_already_pressed) {
     ed0:	0e 94 1a 06 	call	0xc34	; 0xc34 <button_pressed>

00000ed4 <.Loc.65>:
     ed4:	00 97       	sbiw	r24, 0x00	; 0
     ed6:	09 f4       	brne	.+2      	; 0xeda <.Loc.66>

00000ed8 <L0^A>:
     ed8:	bd c0       	rjmp	.+378    	; 0x1054 <.L12>

00000eda <.Loc.66>:
     eda:	89 81       	ldd	r24, Y+1	; 0x01
     edc:	9a 81       	ldd	r25, Y+2	; 0x02
     ede:	00 97       	sbiw	r24, 0x00	; 0
     ee0:	09 f0       	breq	.+2      	; 0xee4 <.Loc.67>

00000ee2 <L0^A>:
     ee2:	b8 c0       	rjmp	.+368    	; 0x1054 <.L12>

00000ee4 <.Loc.67>:
            button_already_pressed = 1;
     ee4:	81 e0       	ldi	r24, 0x01	; 1
     ee6:	90 e0       	ldi	r25, 0x00	; 0
     ee8:	9a 83       	std	Y+2, r25	; 0x02
     eea:	89 83       	std	Y+1, r24	; 0x01
     eec:	80 e0       	ldi	r24, 0x00	; 0
     eee:	90 e0       	ldi	r25, 0x00	; 0
     ef0:	a8 e4       	ldi	r26, 0x48	; 72
     ef2:	b2 e4       	ldi	r27, 0x42	; 66
     ef4:	8b 87       	std	Y+11, r24	; 0x0b
     ef6:	9c 87       	std	Y+12, r25	; 0x0c
     ef8:	ad 87       	std	Y+13, r26	; 0x0d
     efa:	be 87       	std	Y+14, r27	; 0x0e

00000efc <.LBB52>:
	__tmp = ((F_CPU) / 4e3) * __ms;
     efc:	20 e0       	ldi	r18, 0x00	; 0
     efe:	30 e0       	ldi	r19, 0x00	; 0
     f00:	4a e7       	ldi	r20, 0x7A	; 122
     f02:	55 e4       	ldi	r21, 0x45	; 69
     f04:	6b 85       	ldd	r22, Y+11	; 0x0b
     f06:	7c 85       	ldd	r23, Y+12	; 0x0c
     f08:	8d 85       	ldd	r24, Y+13	; 0x0d
     f0a:	9e 85       	ldd	r25, Y+14	; 0x0e
     f0c:	0e 94 17 19 	call	0x322e	; 0x322e <__mulsf3>
     f10:	cf 55       	subi	r28, 0x5F	; 95
     f12:	df 4f       	sbci	r29, 0xFF	; 255
     f14:	68 83       	st	Y, r22
     f16:	79 83       	std	Y+1, r23	; 0x01
     f18:	8a 83       	std	Y+2, r24	; 0x02
     f1a:	9b 83       	std	Y+3, r25	; 0x03
     f1c:	c1 5a       	subi	r28, 0xA1	; 161
     f1e:	d0 40       	sbci	r29, 0x00	; 0
     f20:	cf 55       	subi	r28, 0x5F	; 95
     f22:	df 4f       	sbci	r29, 0xFF	; 255
     f24:	88 81       	ld	r24, Y
     f26:	99 81       	ldd	r25, Y+1	; 0x01
     f28:	aa 81       	ldd	r26, Y+2	; 0x02
     f2a:	bb 81       	ldd	r27, Y+3	; 0x03
     f2c:	c1 5a       	subi	r28, 0xA1	; 161
     f2e:	d0 40       	sbci	r29, 0x00	; 0
     f30:	8f 87       	std	Y+15, r24	; 0x0f
     f32:	98 8b       	std	Y+16, r25	; 0x10
     f34:	a9 8b       	std	Y+17, r26	; 0x11
     f36:	ba 8b       	std	Y+18, r27	; 0x12

00000f38 <.Loc.69>:
	if (__tmp < 1.0)
     f38:	20 e0       	ldi	r18, 0x00	; 0
     f3a:	30 e0       	ldi	r19, 0x00	; 0
     f3c:	40 e8       	ldi	r20, 0x80	; 128
     f3e:	5f e3       	ldi	r21, 0x3F	; 63
     f40:	6f 85       	ldd	r22, Y+15	; 0x0f
     f42:	78 89       	ldd	r23, Y+16	; 0x10
     f44:	89 89       	ldd	r24, Y+17	; 0x11
     f46:	9a 89       	ldd	r25, Y+18	; 0x12
     f48:	0e 94 ba 17 	call	0x2f74	; 0x2f74 <__cmpsf2>
     f4c:	88 23       	and	r24, r24
     f4e:	2c f4       	brge	.+10     	; 0xf5a <.L96>

00000f50 <.Loc.70>:
		__ticks = 1;
     f50:	81 e0       	ldi	r24, 0x01	; 1
     f52:	90 e0       	ldi	r25, 0x00	; 0
     f54:	9c 8b       	std	Y+20, r25	; 0x14
     f56:	8b 8b       	std	Y+19, r24	; 0x13
     f58:	72 c0       	rjmp	.+228    	; 0x103e <.L15>

00000f5a <.L96>:
	else if (__tmp > 65535)
     f5a:	20 e0       	ldi	r18, 0x00	; 0
     f5c:	3f ef       	ldi	r19, 0xFF	; 255
     f5e:	4f e7       	ldi	r20, 0x7F	; 127
     f60:	57 e4       	ldi	r21, 0x47	; 71
     f62:	6f 85       	ldd	r22, Y+15	; 0x0f
     f64:	78 89       	ldd	r23, Y+16	; 0x10
     f66:	89 89       	ldd	r24, Y+17	; 0x11
     f68:	9a 89       	ldd	r25, Y+18	; 0x12
     f6a:	0e 94 12 19 	call	0x3224	; 0x3224 <__gesf2>
     f6e:	88 23       	and	r24, r24
     f70:	09 f0       	breq	.+2      	; 0xf74 <L0^A>

00000f72 <L0^A>:
     f72:	0c f4       	brge	.+2      	; 0xf76 <.Loc.72>

00000f74 <L0^A>:
     f74:	4e c0       	rjmp	.+156    	; 0x1012 <.L97>

00000f76 <.Loc.72>:
		__ticks = (uint16_t) (__ms * 10.0);
     f76:	20 e0       	ldi	r18, 0x00	; 0
     f78:	30 e0       	ldi	r19, 0x00	; 0
     f7a:	40 e2       	ldi	r20, 0x20	; 32
     f7c:	51 e4       	ldi	r21, 0x41	; 65
     f7e:	6b 85       	ldd	r22, Y+11	; 0x0b
     f80:	7c 85       	ldd	r23, Y+12	; 0x0c
     f82:	8d 85       	ldd	r24, Y+13	; 0x0d
     f84:	9e 85       	ldd	r25, Y+14	; 0x0e
     f86:	0e 94 17 19 	call	0x322e	; 0x322e <__mulsf3>
     f8a:	cb 55       	subi	r28, 0x5B	; 91
     f8c:	df 4f       	sbci	r29, 0xFF	; 255
     f8e:	68 83       	st	Y, r22
     f90:	79 83       	std	Y+1, r23	; 0x01
     f92:	8a 83       	std	Y+2, r24	; 0x02
     f94:	9b 83       	std	Y+3, r25	; 0x03
     f96:	c5 5a       	subi	r28, 0xA5	; 165
     f98:	d0 40       	sbci	r29, 0x00	; 0
     f9a:	cb 55       	subi	r28, 0x5B	; 91
     f9c:	df 4f       	sbci	r29, 0xFF	; 255
     f9e:	88 81       	ld	r24, Y
     fa0:	99 81       	ldd	r25, Y+1	; 0x01
     fa2:	aa 81       	ldd	r26, Y+2	; 0x02
     fa4:	bb 81       	ldd	r27, Y+3	; 0x03
     fa6:	c5 5a       	subi	r28, 0xA5	; 165
     fa8:	d0 40       	sbci	r29, 0x00	; 0
     faa:	ed 96       	adiw	r28, 0x3d	; 61
     fac:	8c af       	std	Y+60, r24	; 0x3c
     fae:	9d af       	std	Y+61, r25	; 0x3d
     fb0:	ae af       	std	Y+62, r26	; 0x3e
     fb2:	bf af       	std	Y+63, r27	; 0x3f
     fb4:	ed 97       	sbiw	r28, 0x3d	; 61

00000fb6 <.Loc.73>:
     fb6:	ed 96       	adiw	r28, 0x3d	; 61
     fb8:	6c ad       	ldd	r22, Y+60	; 0x3c
     fba:	7d ad       	ldd	r23, Y+61	; 0x3d
     fbc:	8e ad       	ldd	r24, Y+62	; 0x3e
     fbe:	9f ad       	ldd	r25, Y+63	; 0x3f
     fc0:	ed 97       	sbiw	r28, 0x3d	; 61
     fc2:	0e 94 31 18 	call	0x3062	; 0x3062 <__fixunssfsi>
     fc6:	c7 55       	subi	r28, 0x57	; 87
     fc8:	df 4f       	sbci	r29, 0xFF	; 255
     fca:	68 83       	st	Y, r22
     fcc:	79 83       	std	Y+1, r23	; 0x01
     fce:	8a 83       	std	Y+2, r24	; 0x02
     fd0:	9b 83       	std	Y+3, r25	; 0x03
     fd2:	c9 5a       	subi	r28, 0xA9	; 169
     fd4:	d0 40       	sbci	r29, 0x00	; 0
     fd6:	c7 55       	subi	r28, 0x57	; 87
     fd8:	df 4f       	sbci	r29, 0xFF	; 255
     fda:	a8 81       	ld	r26, Y
     fdc:	b9 81       	ldd	r27, Y+1	; 0x01
     fde:	c9 5a       	subi	r28, 0xA9	; 169
     fe0:	d0 40       	sbci	r29, 0x00	; 0
     fe2:	bc 8b       	std	Y+20, r27	; 0x14
     fe4:	ab 8b       	std	Y+19, r26	; 0x13

00000fe6 <.Loc.74>:
		while(__ticks)
     fe6:	10 c0       	rjmp	.+32     	; 0x1008 <.L18>

00000fe8 <.L19>:
     fe8:	80 e9       	ldi	r24, 0x90	; 144
     fea:	91 e0       	ldi	r25, 0x01	; 1
     fec:	9e 8b       	std	Y+22, r25	; 0x16
     fee:	8d 8b       	std	Y+21, r24	; 0x15

00000ff0 <.LBB54>:
     ff0:	8d 89       	ldd	r24, Y+21	; 0x15
     ff2:	9e 89       	ldd	r25, Y+22	; 0x16

00000ff4 <.L1^B1>:
     ff4:	01 97       	sbiw	r24, 0x01	; 1
     ff6:	f1 f7       	brne	.-4      	; 0xff4 <.L1^B1>
     ff8:	9e 8b       	std	Y+22, r25	; 0x16
     ffa:	8d 8b       	std	Y+21, r24	; 0x15

00000ffc <.Loc.76>:
	...

00000ffe <.LBE54>:
			__ticks --;
     ffe:	8b 89       	ldd	r24, Y+19	; 0x13
    1000:	9c 89       	ldd	r25, Y+20	; 0x14
    1002:	01 97       	sbiw	r24, 0x01	; 1
    1004:	9c 8b       	std	Y+20, r25	; 0x14
    1006:	8b 8b       	std	Y+19, r24	; 0x13

00001008 <.L18>:
		while(__ticks)
    1008:	8b 89       	ldd	r24, Y+19	; 0x13
    100a:	9c 89       	ldd	r25, Y+20	; 0x14
    100c:	00 97       	sbiw	r24, 0x00	; 0
    100e:	61 f7       	brne	.-40     	; 0xfe8 <.L19>

00001010 <.Loc.79>:
		return;
    1010:	21 c0       	rjmp	.+66     	; 0x1054 <.L12>

00001012 <.L97>:
		__ticks = (uint16_t)__tmp;
    1012:	6f 85       	ldd	r22, Y+15	; 0x0f
    1014:	78 89       	ldd	r23, Y+16	; 0x10
    1016:	89 89       	ldd	r24, Y+17	; 0x11
    1018:	9a 89       	ldd	r25, Y+18	; 0x12
    101a:	0e 94 31 18 	call	0x3062	; 0x3062 <__fixunssfsi>
    101e:	c3 55       	subi	r28, 0x53	; 83
    1020:	df 4f       	sbci	r29, 0xFF	; 255
    1022:	68 83       	st	Y, r22
    1024:	79 83       	std	Y+1, r23	; 0x01
    1026:	8a 83       	std	Y+2, r24	; 0x02
    1028:	9b 83       	std	Y+3, r25	; 0x03
    102a:	cd 5a       	subi	r28, 0xAD	; 173
    102c:	d0 40       	sbci	r29, 0x00	; 0
    102e:	c3 55       	subi	r28, 0x53	; 83
    1030:	df 4f       	sbci	r29, 0xFF	; 255
    1032:	e8 81       	ld	r30, Y
    1034:	f9 81       	ldd	r31, Y+1	; 0x01
    1036:	cd 5a       	subi	r28, 0xAD	; 173
    1038:	d0 40       	sbci	r29, 0x00	; 0
    103a:	fc 8b       	std	Y+20, r31	; 0x14
    103c:	eb 8b       	std	Y+19, r30	; 0x13

0000103e <.L15>:
    103e:	8b 89       	ldd	r24, Y+19	; 0x13
    1040:	9c 89       	ldd	r25, Y+20	; 0x14
    1042:	98 8f       	std	Y+24, r25	; 0x18
    1044:	8f 8b       	std	Y+23, r24	; 0x17

00001046 <.LBB56>:
    1046:	8f 89       	ldd	r24, Y+23	; 0x17
    1048:	98 8d       	ldd	r25, Y+24	; 0x18

0000104a <.L1^B2>:
    104a:	01 97       	sbiw	r24, 0x01	; 1
    104c:	f1 f7       	brne	.-4      	; 0x104a <.L1^B2>
    104e:	98 8f       	std	Y+24, r25	; 0x18
    1050:	8f 8b       	std	Y+23, r24	; 0x17

00001052 <.Loc.82>:
	...

00001054 <.L12>:
            _delay_ms(50);
        }

                // Handle obstacle detected by distance1 or distance2 sensor
                if ((distance1 < 15 || distance2 < 15) && !cool_down_flag && !boom_detected_flag && button_already_pressed) {
    1054:	8d 81       	ldd	r24, Y+5	; 0x05
    1056:	9e 81       	ldd	r25, Y+6	; 0x06
    1058:	8e 30       	cpi	r24, 0x0E	; 14
    105a:	91 05       	cpc	r25, r1
    105c:	39 f0       	breq	.+14     	; 0x106c <.L21>
    105e:	30 f0       	brcs	.+12     	; 0x106c <.L21>

00001060 <.Loc.84>:
    1060:	8f 81       	ldd	r24, Y+7	; 0x07
    1062:	98 85       	ldd	r25, Y+8	; 0x08
    1064:	8e 30       	cpi	r24, 0x0E	; 14
    1066:	91 05       	cpc	r25, r1
    1068:	09 f0       	breq	.+2      	; 0x106c <.L21>

0000106a <L0^A>:
    106a:	f0 f4       	brcc	.+60     	; 0x10a8 <.L22>

0000106c <.L21>:
    106c:	80 91 03 02 	lds	r24, 0x0203	; 0x800203 <cool_down_flag>

00001070 <.Loc.86>:
    1070:	88 23       	and	r24, r24
    1072:	d1 f4       	brne	.+52     	; 0x10a8 <.L22>

00001074 <.Loc.87>:
    1074:	80 91 02 02 	lds	r24, 0x0202	; 0x800202 <boom_detected_flag>

00001078 <.Loc.88>:
    1078:	88 23       	and	r24, r24
    107a:	b1 f4       	brne	.+44     	; 0x10a8 <.L22>

0000107c <.Loc.89>:
    107c:	89 81       	ldd	r24, Y+1	; 0x01
    107e:	9a 81       	ldd	r25, Y+2	; 0x02
    1080:	00 97       	sbiw	r24, 0x00	; 0
    1082:	91 f0       	breq	.+36     	; 0x10a8 <.L22>

00001084 <.Loc.90>:
                    agv_stoppen();
    1084:	0e 94 fa 02 	call	0x5f4	; 0x5f4 <agv_stoppen>

00001088 <.Loc.91>:
                    agv_can_go = 0;
    1088:	10 92 01 02 	sts	0x0201, r1	; 0x800201 <agv_can_go+0x1>
    108c:	10 92 00 02 	sts	0x0200, r1	; 0x800200 <agv_can_go>

00001090 <.Loc.92>:
                    boom_detected_flag = 1;
    1090:	81 e0       	ldi	r24, 0x01	; 1
    1092:	80 93 02 02 	sts	0x0202, r24	; 0x800202 <boom_detected_flag>

00001096 <.Loc.93>:
                    TCCR0B |= (1 << CS02) | (1 << CS00); // Start Timer0
    1096:	85 e4       	ldi	r24, 0x45	; 69
    1098:	90 e0       	ldi	r25, 0x00	; 0
    109a:	dc 01       	movw	r26, r24
    109c:	2c 91       	ld	r18, X
    109e:	85 e4       	ldi	r24, 0x45	; 69
    10a0:	90 e0       	ldi	r25, 0x00	; 0

000010a2 <.Loc.94>:
    10a2:	25 60       	ori	r18, 0x05	; 5
    10a4:	fc 01       	movw	r30, r24
    10a6:	20 83       	st	Z, r18

000010a8 <.L22>:
                }

                // Handle obstacle detected by distance3 sensor
                if (distance3 < 15) {
    10a8:	89 85       	ldd	r24, Y+9	; 0x09
    10aa:	9a 85       	ldd	r25, Y+10	; 0x0a
    10ac:	8e 30       	cpi	r24, 0x0E	; 14
    10ae:	91 05       	cpc	r25, r1
    10b0:	09 f0       	breq	.+2      	; 0x10b4 <.Loc.96>

000010b2 <L0^A>:
    10b2:	78 f4       	brcc	.+30     	; 0x10d2 <.L23>

000010b4 <.Loc.96>:
                    agv_stoppen();
    10b4:	0e 94 fa 02 	call	0x5f4	; 0x5f4 <agv_stoppen>

000010b8 <.Loc.97>:
                    agv_can_go = 0;
    10b8:	10 92 01 02 	sts	0x0201, r1	; 0x800201 <agv_can_go+0x1>
    10bc:	10 92 00 02 	sts	0x0200, r1	; 0x800200 <agv_can_go>

000010c0 <.Loc.98>:
                    buzzer_uit();
    10c0:	0e 94 c0 00 	call	0x180	; 0x180 <buzzer_uit>

000010c4 <.Loc.99>:
                    ultrason_obstacle_flag = 1;
    10c4:	81 e0       	ldi	r24, 0x01	; 1
    10c6:	90 e0       	ldi	r25, 0x00	; 0
    10c8:	90 93 07 02 	sts	0x0207, r25	; 0x800207 <ultrason_obstacle_flag+0x1>
    10cc:	80 93 06 02 	sts	0x0206, r24	; 0x800206 <ultrason_obstacle_flag>
    10d0:	0a c0       	rjmp	.+20     	; 0x10e6 <.L24>

000010d2 <.L23>:
                } else {
                    ultrason_obstacle_flag = 0;
    10d2:	10 92 07 02 	sts	0x0207, r1	; 0x800207 <ultrason_obstacle_flag+0x1>
    10d6:	10 92 06 02 	sts	0x0206, r1	; 0x800206 <ultrason_obstacle_flag>

000010da <.Loc.101>:
                    agv_can_go = 1;
    10da:	81 e0       	ldi	r24, 0x01	; 1
    10dc:	90 e0       	ldi	r25, 0x00	; 0
    10de:	90 93 01 02 	sts	0x0201, r25	; 0x800201 <agv_can_go+0x1>
    10e2:	80 93 00 02 	sts	0x0200, r24	; 0x800200 <agv_can_go>

000010e6 <.L24>:
                }

                // Warning signal for close obstacles detected by distance3
                if (distance3 < 30 && distance3 > 15) {
    10e6:	89 85       	ldd	r24, Y+9	; 0x09
    10e8:	9a 85       	ldd	r25, Y+10	; 0x0a
    10ea:	8d 31       	cpi	r24, 0x1D	; 29
    10ec:	91 05       	cpc	r25, r1
    10ee:	11 f0       	breq	.+4      	; 0x10f4 <.Loc.103>

000010f0 <L0^A>:
    10f0:	08 f0       	brcs	.+2      	; 0x10f4 <.Loc.103>

000010f2 <L0^A>:
    10f2:	e7 c0       	rjmp	.+462    	; 0x12c2 <.L25>

000010f4 <.Loc.103>:
    10f4:	89 85       	ldd	r24, Y+9	; 0x09
    10f6:	9a 85       	ldd	r25, Y+10	; 0x0a
    10f8:	8f 30       	cpi	r24, 0x0F	; 15
    10fa:	91 05       	cpc	r25, r1
    10fc:	09 f0       	breq	.+2      	; 0x1100 <L0^A>

000010fe <L0^A>:
    10fe:	08 f4       	brcc	.+2      	; 0x1102 <.LBB58>

00001100 <L0^A>:
    1100:	e0 c0       	rjmp	.+448    	; 0x12c2 <.L25>

00001102 <.LBB58>:
                    for (int i = 0; i < 2; i++) {
    1102:	1c 82       	std	Y+4, r1	; 0x04
    1104:	1b 82       	std	Y+3, r1	; 0x03

00001106 <.Loc.105>:
    1106:	d6 c0       	rjmp	.+428    	; 0x12b4 <.L26>

00001108 <.L36>:
                        if (TIFR4 & (1 << TOV4)) {
    1108:	89 e3       	ldi	r24, 0x39	; 57
    110a:	90 e0       	ldi	r25, 0x00	; 0
    110c:	dc 01       	movw	r26, r24
    110e:	8c 91       	ld	r24, X

00001110 <.Loc.107>:
    1110:	88 2f       	mov	r24, r24
    1112:	90 e0       	ldi	r25, 0x00	; 0
    1114:	81 70       	andi	r24, 0x01	; 1
    1116:	99 27       	eor	r25, r25

00001118 <.Loc.108>:
    1118:	00 97       	sbiw	r24, 0x00	; 0
    111a:	09 f4       	brne	.+2      	; 0x111e <.Loc.109>

0000111c <L0^A>:
    111c:	c6 c0       	rjmp	.+396    	; 0x12aa <.L27>

0000111e <.Loc.109>:
                            TCNT4 = TCNT_INIT;
    111e:	84 ea       	ldi	r24, 0xA4	; 164
    1120:	90 e0       	ldi	r25, 0x00	; 0

00001122 <.Loc.110>:
    1122:	20 e4       	ldi	r18, 0x40	; 64
    1124:	3c e0       	ldi	r19, 0x0C	; 12
    1126:	fc 01       	movw	r30, r24
    1128:	31 83       	std	Z+1, r19	; 0x01
    112a:	20 83       	st	Z, r18

0000112c <.Loc.111>:
                            TIFR4 = (1 << TOV4);
    112c:	89 e3       	ldi	r24, 0x39	; 57
    112e:	90 e0       	ldi	r25, 0x00	; 0

00001130 <.Loc.112>:
    1130:	21 e0       	ldi	r18, 0x01	; 1
    1132:	dc 01       	movw	r26, r24
    1134:	2c 93       	st	X, r18

00001136 <.Loc.113>:
                            buzzer_toggle();
    1136:	0e 94 d1 00 	call	0x1a2	; 0x1a2 <buzzer_toggle>
    113a:	80 e0       	ldi	r24, 0x00	; 0
    113c:	90 e0       	ldi	r25, 0x00	; 0
    113e:	a8 ec       	ldi	r26, 0xC8	; 200
    1140:	b2 e4       	ldi	r27, 0x42	; 66
    1142:	89 8f       	std	Y+25, r24	; 0x19
    1144:	9a 8f       	std	Y+26, r25	; 0x1a
    1146:	ab 8f       	std	Y+27, r26	; 0x1b
    1148:	bc 8f       	std	Y+28, r27	; 0x1c

0000114a <.LBB59>:
	__tmp = ((F_CPU) / 4e3) * __ms;
    114a:	20 e0       	ldi	r18, 0x00	; 0
    114c:	30 e0       	ldi	r19, 0x00	; 0
    114e:	4a e7       	ldi	r20, 0x7A	; 122
    1150:	55 e4       	ldi	r21, 0x45	; 69
    1152:	69 8d       	ldd	r22, Y+25	; 0x19
    1154:	7a 8d       	ldd	r23, Y+26	; 0x1a
    1156:	8b 8d       	ldd	r24, Y+27	; 0x1b
    1158:	9c 8d       	ldd	r25, Y+28	; 0x1c
    115a:	0e 94 17 19 	call	0x322e	; 0x322e <__mulsf3>
    115e:	cf 54       	subi	r28, 0x4F	; 79
    1160:	df 4f       	sbci	r29, 0xFF	; 255
    1162:	68 83       	st	Y, r22
    1164:	79 83       	std	Y+1, r23	; 0x01
    1166:	8a 83       	std	Y+2, r24	; 0x02
    1168:	9b 83       	std	Y+3, r25	; 0x03
    116a:	c1 5b       	subi	r28, 0xB1	; 177
    116c:	d0 40       	sbci	r29, 0x00	; 0
    116e:	cf 54       	subi	r28, 0x4F	; 79
    1170:	df 4f       	sbci	r29, 0xFF	; 255
    1172:	88 81       	ld	r24, Y
    1174:	99 81       	ldd	r25, Y+1	; 0x01
    1176:	aa 81       	ldd	r26, Y+2	; 0x02
    1178:	bb 81       	ldd	r27, Y+3	; 0x03
    117a:	c1 5b       	subi	r28, 0xB1	; 177
    117c:	d0 40       	sbci	r29, 0x00	; 0
    117e:	8d 8f       	std	Y+29, r24	; 0x1d
    1180:	9e 8f       	std	Y+30, r25	; 0x1e
    1182:	af 8f       	std	Y+31, r26	; 0x1f
    1184:	b8 a3       	std	Y+32, r27	; 0x20

00001186 <.Loc.115>:
	if (__tmp < 1.0)
    1186:	20 e0       	ldi	r18, 0x00	; 0
    1188:	30 e0       	ldi	r19, 0x00	; 0
    118a:	40 e8       	ldi	r20, 0x80	; 128
    118c:	5f e3       	ldi	r21, 0x3F	; 63
    118e:	6d 8d       	ldd	r22, Y+29	; 0x1d
    1190:	7e 8d       	ldd	r23, Y+30	; 0x1e
    1192:	8f 8d       	ldd	r24, Y+31	; 0x1f
    1194:	98 a1       	ldd	r25, Y+32	; 0x20
    1196:	0e 94 ba 17 	call	0x2f74	; 0x2f74 <__cmpsf2>
    119a:	88 23       	and	r24, r24
    119c:	2c f4       	brge	.+10     	; 0x11a8 <.L98>

0000119e <.Loc.116>:
		__ticks = 1;
    119e:	81 e0       	ldi	r24, 0x01	; 1
    11a0:	90 e0       	ldi	r25, 0x00	; 0
    11a2:	9a a3       	std	Y+34, r25	; 0x22
    11a4:	89 a3       	std	Y+33, r24	; 0x21
    11a6:	76 c0       	rjmp	.+236    	; 0x1294 <.L30>

000011a8 <.L98>:
	else if (__tmp > 65535)
    11a8:	20 e0       	ldi	r18, 0x00	; 0
    11aa:	3f ef       	ldi	r19, 0xFF	; 255
    11ac:	4f e7       	ldi	r20, 0x7F	; 127
    11ae:	57 e4       	ldi	r21, 0x47	; 71
    11b0:	6d 8d       	ldd	r22, Y+29	; 0x1d
    11b2:	7e 8d       	ldd	r23, Y+30	; 0x1e
    11b4:	8f 8d       	ldd	r24, Y+31	; 0x1f
    11b6:	98 a1       	ldd	r25, Y+32	; 0x20
    11b8:	0e 94 12 19 	call	0x3224	; 0x3224 <__gesf2>
    11bc:	88 23       	and	r24, r24
    11be:	09 f0       	breq	.+2      	; 0x11c2 <L0^A>

000011c0 <L0^A>:
    11c0:	0c f4       	brge	.+2      	; 0x11c4 <.Loc.118>

000011c2 <L0^A>:
    11c2:	52 c0       	rjmp	.+164    	; 0x1268 <.L99>

000011c4 <.Loc.118>:
		__ticks = (uint16_t) (__ms * 10.0);
    11c4:	20 e0       	ldi	r18, 0x00	; 0
    11c6:	30 e0       	ldi	r19, 0x00	; 0
    11c8:	40 e2       	ldi	r20, 0x20	; 32
    11ca:	51 e4       	ldi	r21, 0x41	; 65
    11cc:	69 8d       	ldd	r22, Y+25	; 0x19
    11ce:	7a 8d       	ldd	r23, Y+26	; 0x1a
    11d0:	8b 8d       	ldd	r24, Y+27	; 0x1b
    11d2:	9c 8d       	ldd	r25, Y+28	; 0x1c
    11d4:	0e 94 17 19 	call	0x322e	; 0x322e <__mulsf3>
    11d8:	cb 54       	subi	r28, 0x4B	; 75
    11da:	df 4f       	sbci	r29, 0xFF	; 255
    11dc:	68 83       	st	Y, r22
    11de:	79 83       	std	Y+1, r23	; 0x01
    11e0:	8a 83       	std	Y+2, r24	; 0x02
    11e2:	9b 83       	std	Y+3, r25	; 0x03
    11e4:	c5 5b       	subi	r28, 0xB5	; 181
    11e6:	d0 40       	sbci	r29, 0x00	; 0
    11e8:	cb 54       	subi	r28, 0x4B	; 75
    11ea:	df 4f       	sbci	r29, 0xFF	; 255
    11ec:	88 81       	ld	r24, Y
    11ee:	99 81       	ldd	r25, Y+1	; 0x01
    11f0:	aa 81       	ldd	r26, Y+2	; 0x02
    11f2:	bb 81       	ldd	r27, Y+3	; 0x03
    11f4:	c5 5b       	subi	r28, 0xB5	; 181
    11f6:	d0 40       	sbci	r29, 0x00	; 0
    11f8:	c3 58       	subi	r28, 0x83	; 131
    11fa:	df 4f       	sbci	r29, 0xFF	; 255
    11fc:	88 83       	st	Y, r24
    11fe:	99 83       	std	Y+1, r25	; 0x01
    1200:	aa 83       	std	Y+2, r26	; 0x02
    1202:	bb 83       	std	Y+3, r27	; 0x03
    1204:	cd 57       	subi	r28, 0x7D	; 125
    1206:	d0 40       	sbci	r29, 0x00	; 0

00001208 <.Loc.119>:
    1208:	c3 58       	subi	r28, 0x83	; 131
    120a:	df 4f       	sbci	r29, 0xFF	; 255
    120c:	68 81       	ld	r22, Y
    120e:	79 81       	ldd	r23, Y+1	; 0x01
    1210:	8a 81       	ldd	r24, Y+2	; 0x02
    1212:	9b 81       	ldd	r25, Y+3	; 0x03
    1214:	cd 57       	subi	r28, 0x7D	; 125
    1216:	d0 40       	sbci	r29, 0x00	; 0
    1218:	0e 94 31 18 	call	0x3062	; 0x3062 <__fixunssfsi>
    121c:	c7 54       	subi	r28, 0x47	; 71
    121e:	df 4f       	sbci	r29, 0xFF	; 255
    1220:	68 83       	st	Y, r22
    1222:	79 83       	std	Y+1, r23	; 0x01
    1224:	8a 83       	std	Y+2, r24	; 0x02
    1226:	9b 83       	std	Y+3, r25	; 0x03
    1228:	c9 5b       	subi	r28, 0xB9	; 185
    122a:	d0 40       	sbci	r29, 0x00	; 0
    122c:	c7 54       	subi	r28, 0x47	; 71
    122e:	df 4f       	sbci	r29, 0xFF	; 255
    1230:	a8 81       	ld	r26, Y
    1232:	b9 81       	ldd	r27, Y+1	; 0x01
    1234:	c9 5b       	subi	r28, 0xB9	; 185
    1236:	d0 40       	sbci	r29, 0x00	; 0
    1238:	ba a3       	std	Y+34, r27	; 0x22
    123a:	a9 a3       	std	Y+33, r26	; 0x21

0000123c <.Loc.120>:
		while(__ticks)
    123c:	10 c0       	rjmp	.+32     	; 0x125e <.L33>

0000123e <.L34>:
    123e:	80 e9       	ldi	r24, 0x90	; 144
    1240:	91 e0       	ldi	r25, 0x01	; 1
    1242:	9c a3       	std	Y+36, r25	; 0x24
    1244:	8b a3       	std	Y+35, r24	; 0x23

00001246 <.LBB61>:
    1246:	8b a1       	ldd	r24, Y+35	; 0x23
    1248:	9c a1       	ldd	r25, Y+36	; 0x24

0000124a <.L1^B3>:
    124a:	01 97       	sbiw	r24, 0x01	; 1
    124c:	f1 f7       	brne	.-4      	; 0x124a <.L1^B3>
    124e:	9c a3       	std	Y+36, r25	; 0x24
    1250:	8b a3       	std	Y+35, r24	; 0x23

00001252 <.Loc.122>:
	...

00001254 <.LBE61>:
			__ticks --;
    1254:	89 a1       	ldd	r24, Y+33	; 0x21
    1256:	9a a1       	ldd	r25, Y+34	; 0x22
    1258:	01 97       	sbiw	r24, 0x01	; 1
    125a:	9a a3       	std	Y+34, r25	; 0x22
    125c:	89 a3       	std	Y+33, r24	; 0x21

0000125e <.L33>:
		while(__ticks)
    125e:	89 a1       	ldd	r24, Y+33	; 0x21
    1260:	9a a1       	ldd	r25, Y+34	; 0x22
    1262:	00 97       	sbiw	r24, 0x00	; 0
    1264:	61 f7       	brne	.-40     	; 0x123e <.L34>

00001266 <.Loc.125>:
		return;
    1266:	21 c0       	rjmp	.+66     	; 0x12aa <.L27>

00001268 <.L99>:
		__ticks = (uint16_t)__tmp;
    1268:	6d 8d       	ldd	r22, Y+29	; 0x1d
    126a:	7e 8d       	ldd	r23, Y+30	; 0x1e
    126c:	8f 8d       	ldd	r24, Y+31	; 0x1f
    126e:	98 a1       	ldd	r25, Y+32	; 0x20
    1270:	0e 94 31 18 	call	0x3062	; 0x3062 <__fixunssfsi>
    1274:	c3 54       	subi	r28, 0x43	; 67
    1276:	df 4f       	sbci	r29, 0xFF	; 255
    1278:	68 83       	st	Y, r22
    127a:	79 83       	std	Y+1, r23	; 0x01
    127c:	8a 83       	std	Y+2, r24	; 0x02
    127e:	9b 83       	std	Y+3, r25	; 0x03
    1280:	cd 5b       	subi	r28, 0xBD	; 189
    1282:	d0 40       	sbci	r29, 0x00	; 0
    1284:	c3 54       	subi	r28, 0x43	; 67
    1286:	df 4f       	sbci	r29, 0xFF	; 255
    1288:	e8 81       	ld	r30, Y
    128a:	f9 81       	ldd	r31, Y+1	; 0x01
    128c:	cd 5b       	subi	r28, 0xBD	; 189
    128e:	d0 40       	sbci	r29, 0x00	; 0
    1290:	fa a3       	std	Y+34, r31	; 0x22
    1292:	e9 a3       	std	Y+33, r30	; 0x21

00001294 <.L30>:
    1294:	89 a1       	ldd	r24, Y+33	; 0x21
    1296:	9a a1       	ldd	r25, Y+34	; 0x22
    1298:	9e a3       	std	Y+38, r25	; 0x26
    129a:	8d a3       	std	Y+37, r24	; 0x25

0000129c <.LBB63>:
    129c:	8d a1       	ldd	r24, Y+37	; 0x25
    129e:	9e a1       	ldd	r25, Y+38	; 0x26

000012a0 <.L1^B4>:
    12a0:	01 97       	sbiw	r24, 0x01	; 1
    12a2:	f1 f7       	brne	.-4      	; 0x12a0 <.L1^B4>
    12a4:	9e a3       	std	Y+38, r25	; 0x26
    12a6:	8d a3       	std	Y+37, r24	; 0x25

000012a8 <.Loc.128>:
	...

000012aa <.L27>:
                    for (int i = 0; i < 2; i++) {
    12aa:	8b 81       	ldd	r24, Y+3	; 0x03
    12ac:	9c 81       	ldd	r25, Y+4	; 0x04
    12ae:	01 96       	adiw	r24, 0x01	; 1
    12b0:	9c 83       	std	Y+4, r25	; 0x04
    12b2:	8b 83       	std	Y+3, r24	; 0x03

000012b4 <.L26>:
    12b4:	8b 81       	ldd	r24, Y+3	; 0x03
    12b6:	9c 81       	ldd	r25, Y+4	; 0x04
    12b8:	81 30       	cpi	r24, 0x01	; 1
    12ba:	91 05       	cpc	r25, r1
    12bc:	09 f0       	breq	.+2      	; 0x12c0 <L0^A>

000012be <L0^A>:
    12be:	0c f4       	brge	.+2      	; 0x12c2 <.L25>

000012c0 <L0^A>:
    12c0:	23 cf       	rjmp	.-442    	; 0x1108 <.L36>

000012c2 <.L25>:
                        }
                    }
                }

                // Path correction based on IR sensors
                if (ir_left_detected_flag && ir_right_detected_flag && !boom_detected_flag && !ultrason_obstacle_flag && agv_can_go && button_already_pressed) {
    12c2:	80 91 08 02 	lds	r24, 0x0208	; 0x800208 <ir_left_detected_flag>
    12c6:	90 91 09 02 	lds	r25, 0x0209	; 0x800209 <ir_left_detected_flag+0x1>

000012ca <.Loc.132>:
    12ca:	00 97       	sbiw	r24, 0x00	; 0
    12cc:	09 f4       	brne	.+2      	; 0x12d0 <.Loc.133>

000012ce <L0^A>:
    12ce:	de c0       	rjmp	.+444    	; 0x148c <.L37>

000012d0 <.Loc.133>:
    12d0:	80 91 0a 02 	lds	r24, 0x020A	; 0x80020a <ir_right_detected_flag>
    12d4:	90 91 0b 02 	lds	r25, 0x020B	; 0x80020b <ir_right_detected_flag+0x1>
    12d8:	00 97       	sbiw	r24, 0x00	; 0
    12da:	09 f4       	brne	.+2      	; 0x12de <.Loc.134>

000012dc <L0^A>:
    12dc:	d7 c0       	rjmp	.+430    	; 0x148c <.L37>

000012de <.Loc.134>:
    12de:	80 91 02 02 	lds	r24, 0x0202	; 0x800202 <boom_detected_flag>

000012e2 <.Loc.135>:
    12e2:	88 23       	and	r24, r24
    12e4:	09 f0       	breq	.+2      	; 0x12e8 <.Loc.136>

000012e6 <L0^A>:
    12e6:	d2 c0       	rjmp	.+420    	; 0x148c <.L37>

000012e8 <.Loc.136>:
    12e8:	80 91 06 02 	lds	r24, 0x0206	; 0x800206 <ultrason_obstacle_flag>
    12ec:	90 91 07 02 	lds	r25, 0x0207	; 0x800207 <ultrason_obstacle_flag+0x1>

000012f0 <.Loc.137>:
    12f0:	00 97       	sbiw	r24, 0x00	; 0
    12f2:	09 f0       	breq	.+2      	; 0x12f6 <.Loc.138>

000012f4 <L0^A>:
    12f4:	cb c0       	rjmp	.+406    	; 0x148c <.L37>

000012f6 <.Loc.138>:
    12f6:	80 91 00 02 	lds	r24, 0x0200	; 0x800200 <agv_can_go>
    12fa:	90 91 01 02 	lds	r25, 0x0201	; 0x800201 <agv_can_go+0x1>
    12fe:	00 97       	sbiw	r24, 0x00	; 0
    1300:	09 f4       	brne	.+2      	; 0x1304 <.Loc.139>

00001302 <L0^A>:
    1302:	c4 c0       	rjmp	.+392    	; 0x148c <.L37>

00001304 <.Loc.139>:
    1304:	89 81       	ldd	r24, Y+1	; 0x01
    1306:	9a 81       	ldd	r25, Y+2	; 0x02
    1308:	00 97       	sbiw	r24, 0x00	; 0
    130a:	09 f4       	brne	.+2      	; 0x130e <.Loc.140>

0000130c <L0^A>:
    130c:	bf c0       	rjmp	.+382    	; 0x148c <.L37>

0000130e <.Loc.140>:
                    agv_rechtdoor();
    130e:	0e 94 f9 00 	call	0x1f2	; 0x1f2 <agv_rechtdoor>

00001312 <.Loc.141>:
                    path_exit_flag = 0; // Reset path exit flag if both sensors detect the wall
    1312:	10 92 0d 02 	sts	0x020D, r1	; 0x80020d <path_exit_flag+0x1>
    1316:	10 92 0c 02 	sts	0x020C, r1	; 0x80020c <path_exit_flag>
    131a:	80 e0       	ldi	r24, 0x00	; 0
    131c:	90 e0       	ldi	r25, 0x00	; 0
    131e:	a8 ec       	ldi	r26, 0xC8	; 200
    1320:	b2 e4       	ldi	r27, 0x42	; 66
    1322:	8f a3       	std	Y+39, r24	; 0x27
    1324:	98 a7       	std	Y+40, r25	; 0x28
    1326:	a9 a7       	std	Y+41, r26	; 0x29
    1328:	ba a7       	std	Y+42, r27	; 0x2a

0000132a <.LBB65>:
	__tmp = ((F_CPU) / 4e3) * __ms;
    132a:	20 e0       	ldi	r18, 0x00	; 0
    132c:	30 e0       	ldi	r19, 0x00	; 0
    132e:	4a e7       	ldi	r20, 0x7A	; 122
    1330:	55 e4       	ldi	r21, 0x45	; 69
    1332:	6f a1       	ldd	r22, Y+39	; 0x27
    1334:	78 a5       	ldd	r23, Y+40	; 0x28
    1336:	89 a5       	ldd	r24, Y+41	; 0x29
    1338:	9a a5       	ldd	r25, Y+42	; 0x2a
    133a:	0e 94 17 19 	call	0x322e	; 0x322e <__mulsf3>
    133e:	cf 53       	subi	r28, 0x3F	; 63
    1340:	df 4f       	sbci	r29, 0xFF	; 255
    1342:	68 83       	st	Y, r22
    1344:	79 83       	std	Y+1, r23	; 0x01
    1346:	8a 83       	std	Y+2, r24	; 0x02
    1348:	9b 83       	std	Y+3, r25	; 0x03
    134a:	c1 5c       	subi	r28, 0xC1	; 193
    134c:	d0 40       	sbci	r29, 0x00	; 0
    134e:	cf 53       	subi	r28, 0x3F	; 63
    1350:	df 4f       	sbci	r29, 0xFF	; 255
    1352:	88 81       	ld	r24, Y
    1354:	99 81       	ldd	r25, Y+1	; 0x01
    1356:	aa 81       	ldd	r26, Y+2	; 0x02
    1358:	bb 81       	ldd	r27, Y+3	; 0x03
    135a:	c1 5c       	subi	r28, 0xC1	; 193
    135c:	d0 40       	sbci	r29, 0x00	; 0
    135e:	8b a7       	std	Y+43, r24	; 0x2b
    1360:	9c a7       	std	Y+44, r25	; 0x2c
    1362:	ad a7       	std	Y+45, r26	; 0x2d
    1364:	be a7       	std	Y+46, r27	; 0x2e

00001366 <.Loc.143>:
	if (__tmp < 1.0)
    1366:	20 e0       	ldi	r18, 0x00	; 0
    1368:	30 e0       	ldi	r19, 0x00	; 0
    136a:	40 e8       	ldi	r20, 0x80	; 128
    136c:	5f e3       	ldi	r21, 0x3F	; 63
    136e:	6b a5       	ldd	r22, Y+43	; 0x2b
    1370:	7c a5       	ldd	r23, Y+44	; 0x2c
    1372:	8d a5       	ldd	r24, Y+45	; 0x2d
    1374:	9e a5       	ldd	r25, Y+46	; 0x2e
    1376:	0e 94 ba 17 	call	0x2f74	; 0x2f74 <__cmpsf2>
    137a:	88 23       	and	r24, r24
    137c:	2c f4       	brge	.+10     	; 0x1388 <.L100>

0000137e <.Loc.144>:
		__ticks = 1;
    137e:	81 e0       	ldi	r24, 0x01	; 1
    1380:	90 e0       	ldi	r25, 0x00	; 0
    1382:	98 ab       	std	Y+48, r25	; 0x30
    1384:	8f a7       	std	Y+47, r24	; 0x2f
    1386:	76 c0       	rjmp	.+236    	; 0x1474 <.L40>

00001388 <.L100>:
	else if (__tmp > 65535)
    1388:	20 e0       	ldi	r18, 0x00	; 0
    138a:	3f ef       	ldi	r19, 0xFF	; 255
    138c:	4f e7       	ldi	r20, 0x7F	; 127
    138e:	57 e4       	ldi	r21, 0x47	; 71
    1390:	6b a5       	ldd	r22, Y+43	; 0x2b
    1392:	7c a5       	ldd	r23, Y+44	; 0x2c
    1394:	8d a5       	ldd	r24, Y+45	; 0x2d
    1396:	9e a5       	ldd	r25, Y+46	; 0x2e
    1398:	0e 94 12 19 	call	0x3224	; 0x3224 <__gesf2>
    139c:	88 23       	and	r24, r24
    139e:	09 f0       	breq	.+2      	; 0x13a2 <L0^A>

000013a0 <L0^A>:
    13a0:	0c f4       	brge	.+2      	; 0x13a4 <.Loc.146>

000013a2 <L0^A>:
    13a2:	52 c0       	rjmp	.+164    	; 0x1448 <.L101>

000013a4 <.Loc.146>:
		__ticks = (uint16_t) (__ms * 10.0);
    13a4:	20 e0       	ldi	r18, 0x00	; 0
    13a6:	30 e0       	ldi	r19, 0x00	; 0
    13a8:	40 e2       	ldi	r20, 0x20	; 32
    13aa:	51 e4       	ldi	r21, 0x41	; 65
    13ac:	6f a1       	ldd	r22, Y+39	; 0x27
    13ae:	78 a5       	ldd	r23, Y+40	; 0x28
    13b0:	89 a5       	ldd	r24, Y+41	; 0x29
    13b2:	9a a5       	ldd	r25, Y+42	; 0x2a
    13b4:	0e 94 17 19 	call	0x322e	; 0x322e <__mulsf3>
    13b8:	cb 53       	subi	r28, 0x3B	; 59
    13ba:	df 4f       	sbci	r29, 0xFF	; 255
    13bc:	68 83       	st	Y, r22
    13be:	79 83       	std	Y+1, r23	; 0x01
    13c0:	8a 83       	std	Y+2, r24	; 0x02
    13c2:	9b 83       	std	Y+3, r25	; 0x03
    13c4:	c5 5c       	subi	r28, 0xC5	; 197
    13c6:	d0 40       	sbci	r29, 0x00	; 0
    13c8:	cb 53       	subi	r28, 0x3B	; 59
    13ca:	df 4f       	sbci	r29, 0xFF	; 255
    13cc:	88 81       	ld	r24, Y
    13ce:	99 81       	ldd	r25, Y+1	; 0x01
    13d0:	aa 81       	ldd	r26, Y+2	; 0x02
    13d2:	bb 81       	ldd	r27, Y+3	; 0x03
    13d4:	c5 5c       	subi	r28, 0xC5	; 197
    13d6:	d0 40       	sbci	r29, 0x00	; 0
    13d8:	cf 57       	subi	r28, 0x7F	; 127
    13da:	df 4f       	sbci	r29, 0xFF	; 255
    13dc:	88 83       	st	Y, r24
    13de:	99 83       	std	Y+1, r25	; 0x01
    13e0:	aa 83       	std	Y+2, r26	; 0x02
    13e2:	bb 83       	std	Y+3, r27	; 0x03
    13e4:	c1 58       	subi	r28, 0x81	; 129
    13e6:	d0 40       	sbci	r29, 0x00	; 0

000013e8 <.Loc.147>:
    13e8:	cf 57       	subi	r28, 0x7F	; 127
    13ea:	df 4f       	sbci	r29, 0xFF	; 255
    13ec:	68 81       	ld	r22, Y
    13ee:	79 81       	ldd	r23, Y+1	; 0x01
    13f0:	8a 81       	ldd	r24, Y+2	; 0x02
    13f2:	9b 81       	ldd	r25, Y+3	; 0x03
    13f4:	c1 58       	subi	r28, 0x81	; 129
    13f6:	d0 40       	sbci	r29, 0x00	; 0
    13f8:	0e 94 31 18 	call	0x3062	; 0x3062 <__fixunssfsi>
    13fc:	c7 53       	subi	r28, 0x37	; 55
    13fe:	df 4f       	sbci	r29, 0xFF	; 255
    1400:	68 83       	st	Y, r22
    1402:	79 83       	std	Y+1, r23	; 0x01
    1404:	8a 83       	std	Y+2, r24	; 0x02
    1406:	9b 83       	std	Y+3, r25	; 0x03
    1408:	c9 5c       	subi	r28, 0xC9	; 201
    140a:	d0 40       	sbci	r29, 0x00	; 0
    140c:	c7 53       	subi	r28, 0x37	; 55
    140e:	df 4f       	sbci	r29, 0xFF	; 255
    1410:	a8 81       	ld	r26, Y
    1412:	b9 81       	ldd	r27, Y+1	; 0x01
    1414:	c9 5c       	subi	r28, 0xC9	; 201
    1416:	d0 40       	sbci	r29, 0x00	; 0
    1418:	b8 ab       	std	Y+48, r27	; 0x30
    141a:	af a7       	std	Y+47, r26	; 0x2f

0000141c <.Loc.148>:
		while(__ticks)
    141c:	10 c0       	rjmp	.+32     	; 0x143e <.L43>

0000141e <.L44>:
    141e:	80 e9       	ldi	r24, 0x90	; 144
    1420:	91 e0       	ldi	r25, 0x01	; 1
    1422:	9a ab       	std	Y+50, r25	; 0x32
    1424:	89 ab       	std	Y+49, r24	; 0x31

00001426 <.LBB67>:
    1426:	89 a9       	ldd	r24, Y+49	; 0x31
    1428:	9a a9       	ldd	r25, Y+50	; 0x32

0000142a <.L1^B5>:
    142a:	01 97       	sbiw	r24, 0x01	; 1
    142c:	f1 f7       	brne	.-4      	; 0x142a <.L1^B5>
    142e:	9a ab       	std	Y+50, r25	; 0x32
    1430:	89 ab       	std	Y+49, r24	; 0x31

00001432 <.Loc.150>:
	...

00001434 <.LBE67>:
			__ticks --;
    1434:	8f a5       	ldd	r24, Y+47	; 0x2f
    1436:	98 a9       	ldd	r25, Y+48	; 0x30
    1438:	01 97       	sbiw	r24, 0x01	; 1
    143a:	98 ab       	std	Y+48, r25	; 0x30
    143c:	8f a7       	std	Y+47, r24	; 0x2f

0000143e <.L43>:
		while(__ticks)
    143e:	8f a5       	ldd	r24, Y+47	; 0x2f
    1440:	98 a9       	ldd	r25, Y+48	; 0x30
    1442:	00 97       	sbiw	r24, 0x00	; 0
    1444:	61 f7       	brne	.-40     	; 0x141e <.L44>

00001446 <.Loc.153>:
		return;
    1446:	21 c0       	rjmp	.+66     	; 0x148a <.L45>

00001448 <.L101>:
		__ticks = (uint16_t)__tmp;
    1448:	6b a5       	ldd	r22, Y+43	; 0x2b
    144a:	7c a5       	ldd	r23, Y+44	; 0x2c
    144c:	8d a5       	ldd	r24, Y+45	; 0x2d
    144e:	9e a5       	ldd	r25, Y+46	; 0x2e
    1450:	0e 94 31 18 	call	0x3062	; 0x3062 <__fixunssfsi>
    1454:	c3 53       	subi	r28, 0x33	; 51
    1456:	df 4f       	sbci	r29, 0xFF	; 255
    1458:	68 83       	st	Y, r22
    145a:	79 83       	std	Y+1, r23	; 0x01
    145c:	8a 83       	std	Y+2, r24	; 0x02
    145e:	9b 83       	std	Y+3, r25	; 0x03
    1460:	cd 5c       	subi	r28, 0xCD	; 205
    1462:	d0 40       	sbci	r29, 0x00	; 0
    1464:	c3 53       	subi	r28, 0x33	; 51
    1466:	df 4f       	sbci	r29, 0xFF	; 255
    1468:	e8 81       	ld	r30, Y
    146a:	f9 81       	ldd	r31, Y+1	; 0x01
    146c:	cd 5c       	subi	r28, 0xCD	; 205
    146e:	d0 40       	sbci	r29, 0x00	; 0
    1470:	f8 ab       	std	Y+48, r31	; 0x30
    1472:	ef a7       	std	Y+47, r30	; 0x2f

00001474 <.L40>:
    1474:	8f a5       	ldd	r24, Y+47	; 0x2f
    1476:	98 a9       	ldd	r25, Y+48	; 0x30
    1478:	9c ab       	std	Y+52, r25	; 0x34
    147a:	8b ab       	std	Y+51, r24	; 0x33

0000147c <.LBB69>:
    147c:	8b a9       	ldd	r24, Y+51	; 0x33
    147e:	9c a9       	ldd	r25, Y+52	; 0x34

00001480 <.L1^B6>:
    1480:	01 97       	sbiw	r24, 0x01	; 1
    1482:	f1 f7       	brne	.-4      	; 0x1480 <.L1^B6>
    1484:	9c ab       	std	Y+52, r25	; 0x34
    1486:	8b ab       	std	Y+51, r24	; 0x33

00001488 <.Loc.156>:
	...

0000148a <.L45>:
                    _delay_ms(100);
    148a:	7a c4       	rjmp	.+2292   	; 0x1d80 <.L46>

0000148c <.L37>:
                } else if (!ir_left_detected_flag && ir_right_detected_flag && !boom_detected_flag && !ultrason_obstacle_flag && agv_can_go && button_already_pressed) {
    148c:	80 91 08 02 	lds	r24, 0x0208	; 0x800208 <ir_left_detected_flag>
    1490:	90 91 09 02 	lds	r25, 0x0209	; 0x800209 <ir_left_detected_flag+0x1>

00001494 <.Loc.159>:
    1494:	00 97       	sbiw	r24, 0x00	; 0
    1496:	09 f0       	breq	.+2      	; 0x149a <.Loc.160>

00001498 <L0^A>:
    1498:	f2 c0       	rjmp	.+484    	; 0x167e <.L47>

0000149a <.Loc.160>:
    149a:	80 91 0a 02 	lds	r24, 0x020A	; 0x80020a <ir_right_detected_flag>
    149e:	90 91 0b 02 	lds	r25, 0x020B	; 0x80020b <ir_right_detected_flag+0x1>
    14a2:	00 97       	sbiw	r24, 0x00	; 0
    14a4:	09 f4       	brne	.+2      	; 0x14a8 <.Loc.161>

000014a6 <L0^A>:
    14a6:	eb c0       	rjmp	.+470    	; 0x167e <.L47>

000014a8 <.Loc.161>:
    14a8:	80 91 02 02 	lds	r24, 0x0202	; 0x800202 <boom_detected_flag>

000014ac <.Loc.162>:
    14ac:	88 23       	and	r24, r24
    14ae:	09 f0       	breq	.+2      	; 0x14b2 <.Loc.163>

000014b0 <L0^A>:
    14b0:	e6 c0       	rjmp	.+460    	; 0x167e <.L47>

000014b2 <.Loc.163>:
    14b2:	80 91 06 02 	lds	r24, 0x0206	; 0x800206 <ultrason_obstacle_flag>
    14b6:	90 91 07 02 	lds	r25, 0x0207	; 0x800207 <ultrason_obstacle_flag+0x1>

000014ba <.Loc.164>:
    14ba:	00 97       	sbiw	r24, 0x00	; 0
    14bc:	09 f0       	breq	.+2      	; 0x14c0 <.Loc.165>

000014be <L0^A>:
    14be:	df c0       	rjmp	.+446    	; 0x167e <.L47>

000014c0 <.Loc.165>:
    14c0:	80 91 00 02 	lds	r24, 0x0200	; 0x800200 <agv_can_go>
    14c4:	90 91 01 02 	lds	r25, 0x0201	; 0x800201 <agv_can_go+0x1>
    14c8:	00 97       	sbiw	r24, 0x00	; 0
    14ca:	09 f4       	brne	.+2      	; 0x14ce <.Loc.166>

000014cc <L0^A>:
    14cc:	d8 c0       	rjmp	.+432    	; 0x167e <.L47>

000014ce <.Loc.166>:
    14ce:	89 81       	ldd	r24, Y+1	; 0x01
    14d0:	9a 81       	ldd	r25, Y+2	; 0x02
    14d2:	00 97       	sbiw	r24, 0x00	; 0
    14d4:	09 f4       	brne	.+2      	; 0x14d8 <.Loc.167>

000014d6 <L0^A>:
    14d6:	d3 c0       	rjmp	.+422    	; 0x167e <.L47>

000014d8 <.Loc.167>:
                    agv_links_correctie(); // Correct to the left if right sensor sees the wall but left does not
    14d8:	0e 94 50 04 	call	0x8a0	; 0x8a0 <agv_links_correctie>
    14dc:	80 e0       	ldi	r24, 0x00	; 0
    14de:	90 e0       	ldi	r25, 0x00	; 0
    14e0:	a8 ec       	ldi	r26, 0xC8	; 200
    14e2:	b2 e4       	ldi	r27, 0x42	; 66
    14e4:	8d ab       	std	Y+53, r24	; 0x35
    14e6:	9e ab       	std	Y+54, r25	; 0x36
    14e8:	af ab       	std	Y+55, r26	; 0x37
    14ea:	b8 af       	std	Y+56, r27	; 0x38

000014ec <.LBB71>:
	__tmp = ((F_CPU) / 4e3) * __ms;
    14ec:	20 e0       	ldi	r18, 0x00	; 0
    14ee:	30 e0       	ldi	r19, 0x00	; 0
    14f0:	4a e7       	ldi	r20, 0x7A	; 122
    14f2:	55 e4       	ldi	r21, 0x45	; 69
    14f4:	6d a9       	ldd	r22, Y+53	; 0x35
    14f6:	7e a9       	ldd	r23, Y+54	; 0x36
    14f8:	8f a9       	ldd	r24, Y+55	; 0x37
    14fa:	98 ad       	ldd	r25, Y+56	; 0x38
    14fc:	0e 94 17 19 	call	0x322e	; 0x322e <__mulsf3>
    1500:	cf 52       	subi	r28, 0x2F	; 47
    1502:	df 4f       	sbci	r29, 0xFF	; 255
    1504:	68 83       	st	Y, r22
    1506:	79 83       	std	Y+1, r23	; 0x01
    1508:	8a 83       	std	Y+2, r24	; 0x02
    150a:	9b 83       	std	Y+3, r25	; 0x03
    150c:	c1 5d       	subi	r28, 0xD1	; 209
    150e:	d0 40       	sbci	r29, 0x00	; 0
    1510:	cf 52       	subi	r28, 0x2F	; 47
    1512:	df 4f       	sbci	r29, 0xFF	; 255
    1514:	88 81       	ld	r24, Y
    1516:	99 81       	ldd	r25, Y+1	; 0x01
    1518:	aa 81       	ldd	r26, Y+2	; 0x02
    151a:	bb 81       	ldd	r27, Y+3	; 0x03
    151c:	c1 5d       	subi	r28, 0xD1	; 209
    151e:	d0 40       	sbci	r29, 0x00	; 0
    1520:	89 af       	std	Y+57, r24	; 0x39
    1522:	9a af       	std	Y+58, r25	; 0x3a
    1524:	ab af       	std	Y+59, r26	; 0x3b
    1526:	bc af       	std	Y+60, r27	; 0x3c

00001528 <.Loc.169>:
	if (__tmp < 1.0)
    1528:	20 e0       	ldi	r18, 0x00	; 0
    152a:	30 e0       	ldi	r19, 0x00	; 0
    152c:	40 e8       	ldi	r20, 0x80	; 128
    152e:	5f e3       	ldi	r21, 0x3F	; 63
    1530:	69 ad       	ldd	r22, Y+57	; 0x39
    1532:	7a ad       	ldd	r23, Y+58	; 0x3a
    1534:	8b ad       	ldd	r24, Y+59	; 0x3b
    1536:	9c ad       	ldd	r25, Y+60	; 0x3c
    1538:	0e 94 ba 17 	call	0x2f74	; 0x2f74 <__cmpsf2>
    153c:	88 23       	and	r24, r24
    153e:	2c f4       	brge	.+10     	; 0x154a <.L102>

00001540 <.Loc.170>:
		__ticks = 1;
    1540:	81 e0       	ldi	r24, 0x01	; 1
    1542:	90 e0       	ldi	r25, 0x00	; 0
    1544:	9e af       	std	Y+62, r25	; 0x3e
    1546:	8d af       	std	Y+61, r24	; 0x3d
    1548:	81 c0       	rjmp	.+258    	; 0x164c <.L50>

0000154a <.L102>:
	else if (__tmp > 65535)
    154a:	20 e0       	ldi	r18, 0x00	; 0
    154c:	3f ef       	ldi	r19, 0xFF	; 255
    154e:	4f e7       	ldi	r20, 0x7F	; 127
    1550:	57 e4       	ldi	r21, 0x47	; 71
    1552:	69 ad       	ldd	r22, Y+57	; 0x39
    1554:	7a ad       	ldd	r23, Y+58	; 0x3a
    1556:	8b ad       	ldd	r24, Y+59	; 0x3b
    1558:	9c ad       	ldd	r25, Y+60	; 0x3c
    155a:	0e 94 12 19 	call	0x3224	; 0x3224 <__gesf2>
    155e:	88 23       	and	r24, r24
    1560:	09 f0       	breq	.+2      	; 0x1564 <L0^A>

00001562 <L0^A>:
    1562:	0c f4       	brge	.+2      	; 0x1566 <.Loc.172>

00001564 <L0^A>:
    1564:	5d c0       	rjmp	.+186    	; 0x1620 <.L103>

00001566 <.Loc.172>:
		__ticks = (uint16_t) (__ms * 10.0);
    1566:	20 e0       	ldi	r18, 0x00	; 0
    1568:	30 e0       	ldi	r19, 0x00	; 0
    156a:	40 e2       	ldi	r20, 0x20	; 32
    156c:	51 e4       	ldi	r21, 0x41	; 65
    156e:	6d a9       	ldd	r22, Y+53	; 0x35
    1570:	7e a9       	ldd	r23, Y+54	; 0x36
    1572:	8f a9       	ldd	r24, Y+55	; 0x37
    1574:	98 ad       	ldd	r25, Y+56	; 0x38
    1576:	0e 94 17 19 	call	0x322e	; 0x322e <__mulsf3>
    157a:	cb 52       	subi	r28, 0x2B	; 43
    157c:	df 4f       	sbci	r29, 0xFF	; 255
    157e:	68 83       	st	Y, r22
    1580:	79 83       	std	Y+1, r23	; 0x01
    1582:	8a 83       	std	Y+2, r24	; 0x02
    1584:	9b 83       	std	Y+3, r25	; 0x03
    1586:	c5 5d       	subi	r28, 0xD5	; 213
    1588:	d0 40       	sbci	r29, 0x00	; 0
    158a:	cb 52       	subi	r28, 0x2B	; 43
    158c:	df 4f       	sbci	r29, 0xFF	; 255
    158e:	88 81       	ld	r24, Y
    1590:	99 81       	ldd	r25, Y+1	; 0x01
    1592:	aa 81       	ldd	r26, Y+2	; 0x02
    1594:	bb 81       	ldd	r27, Y+3	; 0x03
    1596:	c5 5d       	subi	r28, 0xD5	; 213
    1598:	d0 40       	sbci	r29, 0x00	; 0
    159a:	cb 57       	subi	r28, 0x7B	; 123
    159c:	df 4f       	sbci	r29, 0xFF	; 255
    159e:	88 83       	st	Y, r24
    15a0:	99 83       	std	Y+1, r25	; 0x01
    15a2:	aa 83       	std	Y+2, r26	; 0x02
    15a4:	bb 83       	std	Y+3, r27	; 0x03
    15a6:	c5 58       	subi	r28, 0x85	; 133
    15a8:	d0 40       	sbci	r29, 0x00	; 0

000015aa <.Loc.173>:
    15aa:	cb 57       	subi	r28, 0x7B	; 123
    15ac:	df 4f       	sbci	r29, 0xFF	; 255
    15ae:	68 81       	ld	r22, Y
    15b0:	79 81       	ldd	r23, Y+1	; 0x01
    15b2:	8a 81       	ldd	r24, Y+2	; 0x02
    15b4:	9b 81       	ldd	r25, Y+3	; 0x03
    15b6:	c5 58       	subi	r28, 0x85	; 133
    15b8:	d0 40       	sbci	r29, 0x00	; 0
    15ba:	0e 94 31 18 	call	0x3062	; 0x3062 <__fixunssfsi>
    15be:	c7 52       	subi	r28, 0x27	; 39
    15c0:	df 4f       	sbci	r29, 0xFF	; 255
    15c2:	68 83       	st	Y, r22
    15c4:	79 83       	std	Y+1, r23	; 0x01
    15c6:	8a 83       	std	Y+2, r24	; 0x02
    15c8:	9b 83       	std	Y+3, r25	; 0x03
    15ca:	c9 5d       	subi	r28, 0xD9	; 217
    15cc:	d0 40       	sbci	r29, 0x00	; 0
    15ce:	c7 52       	subi	r28, 0x27	; 39
    15d0:	df 4f       	sbci	r29, 0xFF	; 255
    15d2:	a8 81       	ld	r26, Y
    15d4:	b9 81       	ldd	r27, Y+1	; 0x01
    15d6:	c9 5d       	subi	r28, 0xD9	; 217
    15d8:	d0 40       	sbci	r29, 0x00	; 0
    15da:	be af       	std	Y+62, r27	; 0x3e
    15dc:	ad af       	std	Y+61, r26	; 0x3d

000015de <.Loc.174>:
		while(__ticks)
    15de:	1b c0       	rjmp	.+54     	; 0x1616 <.L53>

000015e0 <.L54>:
    15e0:	20 e9       	ldi	r18, 0x90	; 144
    15e2:	31 e0       	ldi	r19, 0x01	; 1
    15e4:	ce 01       	movw	r24, r28
    15e6:	cf 96       	adiw	r24, 0x3f	; 63
    15e8:	fc 01       	movw	r30, r24
    15ea:	31 83       	std	Z+1, r19	; 0x01
    15ec:	20 83       	st	Z, r18

000015ee <.LBB73>:
    15ee:	ce 01       	movw	r24, r28
    15f0:	cf 96       	adiw	r24, 0x3f	; 63
    15f2:	dc 01       	movw	r26, r24
    15f4:	8d 91       	ld	r24, X+
    15f6:	9c 91       	ld	r25, X
    15f8:	11 97       	sbiw	r26, 0x01	; 1

000015fa <.L1^B7>:
    15fa:	01 97       	sbiw	r24, 0x01	; 1
    15fc:	f1 f7       	brne	.-4      	; 0x15fa <.L1^B7>
    15fe:	9e 01       	movw	r18, r28
    1600:	21 5c       	subi	r18, 0xC1	; 193
    1602:	3f 4f       	sbci	r19, 0xFF	; 255
    1604:	f9 01       	movw	r30, r18
    1606:	91 83       	std	Z+1, r25	; 0x01
    1608:	80 83       	st	Z, r24

0000160a <.Loc.176>:
	...

0000160c <.LBE73>:
			__ticks --;
    160c:	8d ad       	ldd	r24, Y+61	; 0x3d
    160e:	9e ad       	ldd	r25, Y+62	; 0x3e
    1610:	01 97       	sbiw	r24, 0x01	; 1
    1612:	9e af       	std	Y+62, r25	; 0x3e
    1614:	8d af       	std	Y+61, r24	; 0x3d

00001616 <.L53>:
		while(__ticks)
    1616:	8d ad       	ldd	r24, Y+61	; 0x3d
    1618:	9e ad       	ldd	r25, Y+62	; 0x3e
    161a:	00 97       	sbiw	r24, 0x00	; 0
    161c:	09 f7       	brne	.-62     	; 0x15e0 <.L54>

0000161e <.Loc.179>:
		return;
    161e:	2e c0       	rjmp	.+92     	; 0x167c <.L55>

00001620 <.L103>:
		__ticks = (uint16_t)__tmp;
    1620:	69 ad       	ldd	r22, Y+57	; 0x39
    1622:	7a ad       	ldd	r23, Y+58	; 0x3a
    1624:	8b ad       	ldd	r24, Y+59	; 0x3b
    1626:	9c ad       	ldd	r25, Y+60	; 0x3c
    1628:	0e 94 31 18 	call	0x3062	; 0x3062 <__fixunssfsi>
    162c:	c3 52       	subi	r28, 0x23	; 35
    162e:	df 4f       	sbci	r29, 0xFF	; 255
    1630:	68 83       	st	Y, r22
    1632:	79 83       	std	Y+1, r23	; 0x01
    1634:	8a 83       	std	Y+2, r24	; 0x02
    1636:	9b 83       	std	Y+3, r25	; 0x03
    1638:	cd 5d       	subi	r28, 0xDD	; 221
    163a:	d0 40       	sbci	r29, 0x00	; 0
    163c:	c3 52       	subi	r28, 0x23	; 35
    163e:	df 4f       	sbci	r29, 0xFF	; 255
    1640:	88 81       	ld	r24, Y
    1642:	99 81       	ldd	r25, Y+1	; 0x01
    1644:	cd 5d       	subi	r28, 0xDD	; 221
    1646:	d0 40       	sbci	r29, 0x00	; 0
    1648:	9e af       	std	Y+62, r25	; 0x3e
    164a:	8d af       	std	Y+61, r24	; 0x3d

0000164c <.L50>:
    164c:	ce 01       	movw	r24, r28
    164e:	8f 5b       	subi	r24, 0xBF	; 191
    1650:	9f 4f       	sbci	r25, 0xFF	; 255
    1652:	2d ad       	ldd	r18, Y+61	; 0x3d
    1654:	3e ad       	ldd	r19, Y+62	; 0x3e
    1656:	dc 01       	movw	r26, r24
    1658:	2d 93       	st	X+, r18
    165a:	3c 93       	st	X, r19

0000165c <.LBB75>:
    165c:	ce 01       	movw	r24, r28
    165e:	8f 5b       	subi	r24, 0xBF	; 191
    1660:	9f 4f       	sbci	r25, 0xFF	; 255
    1662:	fc 01       	movw	r30, r24
    1664:	80 81       	ld	r24, Z
    1666:	91 81       	ldd	r25, Z+1	; 0x01

00001668 <.L1^B8>:
    1668:	01 97       	sbiw	r24, 0x01	; 1
    166a:	f1 f7       	brne	.-4      	; 0x1668 <.L1^B8>
    166c:	9e 01       	movw	r18, r28
    166e:	2f 5b       	subi	r18, 0xBF	; 191
    1670:	3f 4f       	sbci	r19, 0xFF	; 255
    1672:	d9 01       	movw	r26, r18
    1674:	11 96       	adiw	r26, 0x01	; 1
    1676:	9c 93       	st	X, r25
    1678:	8e 93       	st	-X, r24

0000167a <.Loc.182>:
	...

0000167c <.L55>:
                    _delay_ms(100);
    167c:	81 c3       	rjmp	.+1794   	; 0x1d80 <.L46>

0000167e <.L47>:
                } else if (ir_left_detected_flag && !ir_right_detected_flag && !boom_detected_flag && !ultrason_obstacle_flag && agv_can_go && button_already_pressed) {
    167e:	80 91 08 02 	lds	r24, 0x0208	; 0x800208 <ir_left_detected_flag>
    1682:	90 91 09 02 	lds	r25, 0x0209	; 0x800209 <ir_left_detected_flag+0x1>

00001686 <.Loc.185>:
    1686:	00 97       	sbiw	r24, 0x00	; 0
    1688:	09 f4       	brne	.+2      	; 0x168c <.Loc.186>

0000168a <L0^A>:
    168a:	2e c1       	rjmp	.+604    	; 0x18e8 <.L56>

0000168c <.Loc.186>:
    168c:	80 91 0a 02 	lds	r24, 0x020A	; 0x80020a <ir_right_detected_flag>
    1690:	90 91 0b 02 	lds	r25, 0x020B	; 0x80020b <ir_right_detected_flag+0x1>

00001694 <.Loc.187>:
    1694:	00 97       	sbiw	r24, 0x00	; 0
    1696:	09 f0       	breq	.+2      	; 0x169a <.Loc.188>

00001698 <L0^A>:
    1698:	27 c1       	rjmp	.+590    	; 0x18e8 <.L56>

0000169a <.Loc.188>:
    169a:	80 91 02 02 	lds	r24, 0x0202	; 0x800202 <boom_detected_flag>

0000169e <.Loc.189>:
    169e:	88 23       	and	r24, r24
    16a0:	09 f0       	breq	.+2      	; 0x16a4 <.Loc.190>

000016a2 <L0^A>:
    16a2:	22 c1       	rjmp	.+580    	; 0x18e8 <.L56>

000016a4 <.Loc.190>:
    16a4:	80 91 06 02 	lds	r24, 0x0206	; 0x800206 <ultrason_obstacle_flag>
    16a8:	90 91 07 02 	lds	r25, 0x0207	; 0x800207 <ultrason_obstacle_flag+0x1>

000016ac <.Loc.191>:
    16ac:	00 97       	sbiw	r24, 0x00	; 0
    16ae:	09 f0       	breq	.+2      	; 0x16b2 <.Loc.192>

000016b0 <L0^A>:
    16b0:	1b c1       	rjmp	.+566    	; 0x18e8 <.L56>

000016b2 <.Loc.192>:
    16b2:	80 91 00 02 	lds	r24, 0x0200	; 0x800200 <agv_can_go>
    16b6:	90 91 01 02 	lds	r25, 0x0201	; 0x800201 <agv_can_go+0x1>
    16ba:	00 97       	sbiw	r24, 0x00	; 0
    16bc:	09 f4       	brne	.+2      	; 0x16c0 <.Loc.193>

000016be <L0^A>:
    16be:	14 c1       	rjmp	.+552    	; 0x18e8 <.L56>

000016c0 <.Loc.193>:
    16c0:	89 81       	ldd	r24, Y+1	; 0x01
    16c2:	9a 81       	ldd	r25, Y+2	; 0x02
    16c4:	00 97       	sbiw	r24, 0x00	; 0
    16c6:	09 f4       	brne	.+2      	; 0x16ca <.Loc.194>

000016c8 <L0^A>:
    16c8:	0f c1       	rjmp	.+542    	; 0x18e8 <.L56>

000016ca <.Loc.194>:
                    agv_rechts_correctie(); // Correct to the right if left sensor sees the wall but right does not
    16ca:	0e 94 a5 03 	call	0x74a	; 0x74a <agv_rechts_correctie>
    16ce:	9e 01       	movw	r18, r28
    16d0:	2d 5b       	subi	r18, 0xBD	; 189
    16d2:	3f 4f       	sbci	r19, 0xFF	; 255
    16d4:	80 e0       	ldi	r24, 0x00	; 0
    16d6:	90 e0       	ldi	r25, 0x00	; 0
    16d8:	a8 ec       	ldi	r26, 0xC8	; 200
    16da:	b2 e4       	ldi	r27, 0x42	; 66
    16dc:	f9 01       	movw	r30, r18
    16de:	80 83       	st	Z, r24
    16e0:	91 83       	std	Z+1, r25	; 0x01
    16e2:	a2 83       	std	Z+2, r26	; 0x02
    16e4:	b3 83       	std	Z+3, r27	; 0x03

000016e6 <.LBB77>:
	__tmp = ((F_CPU) / 4e3) * __ms;
    16e6:	8e 01       	movw	r16, r28
    16e8:	09 5b       	subi	r16, 0xB9	; 185
    16ea:	1f 4f       	sbci	r17, 0xFF	; 255
    16ec:	ce 01       	movw	r24, r28
    16ee:	8d 5b       	subi	r24, 0xBD	; 189
    16f0:	9f 4f       	sbci	r25, 0xFF	; 255
    16f2:	20 e0       	ldi	r18, 0x00	; 0
    16f4:	30 e0       	ldi	r19, 0x00	; 0
    16f6:	4a e7       	ldi	r20, 0x7A	; 122
    16f8:	55 e4       	ldi	r21, 0x45	; 69
    16fa:	dc 01       	movw	r26, r24
    16fc:	6d 91       	ld	r22, X+
    16fe:	7d 91       	ld	r23, X+
    1700:	8d 91       	ld	r24, X+
    1702:	9c 91       	ld	r25, X
    1704:	0e 94 17 19 	call	0x322e	; 0x322e <__mulsf3>
    1708:	cf 51       	subi	r28, 0x1F	; 31
    170a:	df 4f       	sbci	r29, 0xFF	; 255
    170c:	68 83       	st	Y, r22
    170e:	79 83       	std	Y+1, r23	; 0x01
    1710:	8a 83       	std	Y+2, r24	; 0x02
    1712:	9b 83       	std	Y+3, r25	; 0x03
    1714:	c1 5e       	subi	r28, 0xE1	; 225
    1716:	d0 40       	sbci	r29, 0x00	; 0
    1718:	cf 51       	subi	r28, 0x1F	; 31
    171a:	df 4f       	sbci	r29, 0xFF	; 255
    171c:	88 81       	ld	r24, Y
    171e:	99 81       	ldd	r25, Y+1	; 0x01
    1720:	aa 81       	ldd	r26, Y+2	; 0x02
    1722:	bb 81       	ldd	r27, Y+3	; 0x03
    1724:	c1 5e       	subi	r28, 0xE1	; 225
    1726:	d0 40       	sbci	r29, 0x00	; 0
    1728:	f8 01       	movw	r30, r16
    172a:	80 83       	st	Z, r24
    172c:	91 83       	std	Z+1, r25	; 0x01
    172e:	a2 83       	std	Z+2, r26	; 0x02
    1730:	b3 83       	std	Z+3, r27	; 0x03

00001732 <.Loc.196>:
	if (__tmp < 1.0)
    1732:	ce 01       	movw	r24, r28
    1734:	89 5b       	subi	r24, 0xB9	; 185
    1736:	9f 4f       	sbci	r25, 0xFF	; 255
    1738:	20 e0       	ldi	r18, 0x00	; 0
    173a:	30 e0       	ldi	r19, 0x00	; 0
    173c:	40 e8       	ldi	r20, 0x80	; 128
    173e:	5f e3       	ldi	r21, 0x3F	; 63
    1740:	dc 01       	movw	r26, r24
    1742:	6d 91       	ld	r22, X+
    1744:	7d 91       	ld	r23, X+
    1746:	8d 91       	ld	r24, X+
    1748:	9c 91       	ld	r25, X
    174a:	0e 94 ba 17 	call	0x2f74	; 0x2f74 <__cmpsf2>
    174e:	88 23       	and	r24, r24
    1750:	4c f4       	brge	.+18     	; 0x1764 <.L104>

00001752 <.Loc.197>:
		__ticks = 1;
    1752:	ce 01       	movw	r24, r28
    1754:	85 5b       	subi	r24, 0xB5	; 181
    1756:	9f 4f       	sbci	r25, 0xFF	; 255
    1758:	21 e0       	ldi	r18, 0x01	; 1
    175a:	30 e0       	ldi	r19, 0x00	; 0
    175c:	fc 01       	movw	r30, r24
    175e:	31 83       	std	Z+1, r19	; 0x01
    1760:	20 83       	st	Z, r18
    1762:	a5 c0       	rjmp	.+330    	; 0x18ae <.L59>

00001764 <.L104>:
	else if (__tmp > 65535)
    1764:	ce 01       	movw	r24, r28
    1766:	89 5b       	subi	r24, 0xB9	; 185
    1768:	9f 4f       	sbci	r25, 0xFF	; 255
    176a:	20 e0       	ldi	r18, 0x00	; 0
    176c:	3f ef       	ldi	r19, 0xFF	; 255
    176e:	4f e7       	ldi	r20, 0x7F	; 127
    1770:	57 e4       	ldi	r21, 0x47	; 71
    1772:	dc 01       	movw	r26, r24
    1774:	6d 91       	ld	r22, X+
    1776:	7d 91       	ld	r23, X+
    1778:	8d 91       	ld	r24, X+
    177a:	9c 91       	ld	r25, X
    177c:	0e 94 12 19 	call	0x3224	; 0x3224 <__gesf2>
    1780:	88 23       	and	r24, r24
    1782:	09 f0       	breq	.+2      	; 0x1786 <L0^A>

00001784 <L0^A>:
    1784:	0c f4       	brge	.+2      	; 0x1788 <.Loc.199>

00001786 <L0^A>:
    1786:	75 c0       	rjmp	.+234    	; 0x1872 <.L105>

00001788 <.Loc.199>:
		__ticks = (uint16_t) (__ms * 10.0);
    1788:	ce 01       	movw	r24, r28
    178a:	8d 5b       	subi	r24, 0xBD	; 189
    178c:	9f 4f       	sbci	r25, 0xFF	; 255
    178e:	20 e0       	ldi	r18, 0x00	; 0
    1790:	30 e0       	ldi	r19, 0x00	; 0
    1792:	40 e2       	ldi	r20, 0x20	; 32
    1794:	51 e4       	ldi	r21, 0x41	; 65
    1796:	fc 01       	movw	r30, r24
    1798:	60 81       	ld	r22, Z
    179a:	71 81       	ldd	r23, Z+1	; 0x01
    179c:	82 81       	ldd	r24, Z+2	; 0x02
    179e:	93 81       	ldd	r25, Z+3	; 0x03
    17a0:	0e 94 17 19 	call	0x322e	; 0x322e <__mulsf3>
    17a4:	cb 51       	subi	r28, 0x1B	; 27
    17a6:	df 4f       	sbci	r29, 0xFF	; 255
    17a8:	68 83       	st	Y, r22
    17aa:	79 83       	std	Y+1, r23	; 0x01
    17ac:	8a 83       	std	Y+2, r24	; 0x02
    17ae:	9b 83       	std	Y+3, r25	; 0x03
    17b0:	c5 5e       	subi	r28, 0xE5	; 229
    17b2:	d0 40       	sbci	r29, 0x00	; 0
    17b4:	cb 51       	subi	r28, 0x1B	; 27
    17b6:	df 4f       	sbci	r29, 0xFF	; 255
    17b8:	88 81       	ld	r24, Y
    17ba:	99 81       	ldd	r25, Y+1	; 0x01
    17bc:	aa 81       	ldd	r26, Y+2	; 0x02
    17be:	bb 81       	ldd	r27, Y+3	; 0x03
    17c0:	c5 5e       	subi	r28, 0xE5	; 229
    17c2:	d0 40       	sbci	r29, 0x00	; 0
    17c4:	c7 57       	subi	r28, 0x77	; 119
    17c6:	df 4f       	sbci	r29, 0xFF	; 255
    17c8:	88 83       	st	Y, r24
    17ca:	99 83       	std	Y+1, r25	; 0x01
    17cc:	aa 83       	std	Y+2, r26	; 0x02
    17ce:	bb 83       	std	Y+3, r27	; 0x03
    17d0:	c9 58       	subi	r28, 0x89	; 137
    17d2:	d0 40       	sbci	r29, 0x00	; 0

000017d4 <.Loc.200>:
    17d4:	8e 01       	movw	r16, r28
    17d6:	05 5b       	subi	r16, 0xB5	; 181
    17d8:	1f 4f       	sbci	r17, 0xFF	; 255
    17da:	c7 57       	subi	r28, 0x77	; 119
    17dc:	df 4f       	sbci	r29, 0xFF	; 255
    17de:	68 81       	ld	r22, Y
    17e0:	79 81       	ldd	r23, Y+1	; 0x01
    17e2:	8a 81       	ldd	r24, Y+2	; 0x02
    17e4:	9b 81       	ldd	r25, Y+3	; 0x03
    17e6:	c9 58       	subi	r28, 0x89	; 137
    17e8:	d0 40       	sbci	r29, 0x00	; 0
    17ea:	0e 94 31 18 	call	0x3062	; 0x3062 <__fixunssfsi>
    17ee:	c7 51       	subi	r28, 0x17	; 23
    17f0:	df 4f       	sbci	r29, 0xFF	; 255
    17f2:	68 83       	st	Y, r22
    17f4:	79 83       	std	Y+1, r23	; 0x01
    17f6:	8a 83       	std	Y+2, r24	; 0x02
    17f8:	9b 83       	std	Y+3, r25	; 0x03
    17fa:	c9 5e       	subi	r28, 0xE9	; 233
    17fc:	d0 40       	sbci	r29, 0x00	; 0
    17fe:	c7 51       	subi	r28, 0x17	; 23
    1800:	df 4f       	sbci	r29, 0xFF	; 255
    1802:	e8 81       	ld	r30, Y
    1804:	f9 81       	ldd	r31, Y+1	; 0x01
    1806:	c9 5e       	subi	r28, 0xE9	; 233
    1808:	d0 40       	sbci	r29, 0x00	; 0
    180a:	d8 01       	movw	r26, r16
    180c:	11 96       	adiw	r26, 0x01	; 1
    180e:	fc 93       	st	X, r31
    1810:	ee 93       	st	-X, r30

00001812 <.Loc.201>:
		while(__ticks)
    1812:	26 c0       	rjmp	.+76     	; 0x1860 <.L62>

00001814 <.L63>:
    1814:	ce 01       	movw	r24, r28
    1816:	83 5b       	subi	r24, 0xB3	; 179
    1818:	9f 4f       	sbci	r25, 0xFF	; 255
    181a:	20 e9       	ldi	r18, 0x90	; 144
    181c:	31 e0       	ldi	r19, 0x01	; 1
    181e:	dc 01       	movw	r26, r24
    1820:	2d 93       	st	X+, r18
    1822:	3c 93       	st	X, r19

00001824 <.LBB79>:
    1824:	ce 01       	movw	r24, r28
    1826:	83 5b       	subi	r24, 0xB3	; 179
    1828:	9f 4f       	sbci	r25, 0xFF	; 255
    182a:	fc 01       	movw	r30, r24
    182c:	80 81       	ld	r24, Z
    182e:	91 81       	ldd	r25, Z+1	; 0x01

00001830 <.L1^B9>:
    1830:	01 97       	sbiw	r24, 0x01	; 1
    1832:	f1 f7       	brne	.-4      	; 0x1830 <.L1^B9>
    1834:	9e 01       	movw	r18, r28
    1836:	23 5b       	subi	r18, 0xB3	; 179
    1838:	3f 4f       	sbci	r19, 0xFF	; 255
    183a:	d9 01       	movw	r26, r18
    183c:	8d 93       	st	X+, r24
    183e:	9c 93       	st	X, r25

00001840 <.Loc.203>:
	...

00001842 <.LBE79>:
			__ticks --;
    1842:	ce 01       	movw	r24, r28
    1844:	85 5b       	subi	r24, 0xB5	; 181
    1846:	9f 4f       	sbci	r25, 0xFF	; 255
    1848:	9e 01       	movw	r18, r28
    184a:	25 5b       	subi	r18, 0xB5	; 181
    184c:	3f 4f       	sbci	r19, 0xFF	; 255
    184e:	f9 01       	movw	r30, r18
    1850:	20 81       	ld	r18, Z
    1852:	31 81       	ldd	r19, Z+1	; 0x01
    1854:	21 50       	subi	r18, 0x01	; 1
    1856:	31 09       	sbc	r19, r1
    1858:	dc 01       	movw	r26, r24
    185a:	11 96       	adiw	r26, 0x01	; 1
    185c:	3c 93       	st	X, r19
    185e:	2e 93       	st	-X, r18

00001860 <.L62>:
		while(__ticks)
    1860:	ce 01       	movw	r24, r28
    1862:	85 5b       	subi	r24, 0xB5	; 181
    1864:	9f 4f       	sbci	r25, 0xFF	; 255
    1866:	fc 01       	movw	r30, r24
    1868:	80 81       	ld	r24, Z
    186a:	91 81       	ldd	r25, Z+1	; 0x01
    186c:	00 97       	sbiw	r24, 0x00	; 0
    186e:	91 f6       	brne	.-92     	; 0x1814 <.L63>

00001870 <.Loc.206>:
		return;
    1870:	3a c0       	rjmp	.+116    	; 0x18e6 <.L64>

00001872 <.L105>:
		__ticks = (uint16_t)__tmp;
    1872:	8e 01       	movw	r16, r28
    1874:	05 5b       	subi	r16, 0xB5	; 181
    1876:	1f 4f       	sbci	r17, 0xFF	; 255
    1878:	ce 01       	movw	r24, r28
    187a:	89 5b       	subi	r24, 0xB9	; 185
    187c:	9f 4f       	sbci	r25, 0xFF	; 255
    187e:	dc 01       	movw	r26, r24
    1880:	6d 91       	ld	r22, X+
    1882:	7d 91       	ld	r23, X+
    1884:	8d 91       	ld	r24, X+
    1886:	9c 91       	ld	r25, X
    1888:	0e 94 31 18 	call	0x3062	; 0x3062 <__fixunssfsi>
    188c:	c3 51       	subi	r28, 0x13	; 19
    188e:	df 4f       	sbci	r29, 0xFF	; 255
    1890:	68 83       	st	Y, r22
    1892:	79 83       	std	Y+1, r23	; 0x01
    1894:	8a 83       	std	Y+2, r24	; 0x02
    1896:	9b 83       	std	Y+3, r25	; 0x03
    1898:	cd 5e       	subi	r28, 0xED	; 237
    189a:	d0 40       	sbci	r29, 0x00	; 0
    189c:	c3 51       	subi	r28, 0x13	; 19
    189e:	df 4f       	sbci	r29, 0xFF	; 255
    18a0:	88 81       	ld	r24, Y
    18a2:	99 81       	ldd	r25, Y+1	; 0x01
    18a4:	cd 5e       	subi	r28, 0xED	; 237
    18a6:	d0 40       	sbci	r29, 0x00	; 0
    18a8:	f8 01       	movw	r30, r16
    18aa:	91 83       	std	Z+1, r25	; 0x01
    18ac:	80 83       	st	Z, r24

000018ae <.L59>:
    18ae:	ce 01       	movw	r24, r28
    18b0:	81 5b       	subi	r24, 0xB1	; 177
    18b2:	9f 4f       	sbci	r25, 0xFF	; 255
    18b4:	9e 01       	movw	r18, r28
    18b6:	25 5b       	subi	r18, 0xB5	; 181
    18b8:	3f 4f       	sbci	r19, 0xFF	; 255
    18ba:	d9 01       	movw	r26, r18
    18bc:	2d 91       	ld	r18, X+
    18be:	3c 91       	ld	r19, X
    18c0:	fc 01       	movw	r30, r24
    18c2:	31 83       	std	Z+1, r19	; 0x01
    18c4:	20 83       	st	Z, r18

000018c6 <.LBB81>:
    18c6:	ce 01       	movw	r24, r28
    18c8:	81 5b       	subi	r24, 0xB1	; 177
    18ca:	9f 4f       	sbci	r25, 0xFF	; 255
    18cc:	dc 01       	movw	r26, r24
    18ce:	8d 91       	ld	r24, X+
    18d0:	9c 91       	ld	r25, X
    18d2:	11 97       	sbiw	r26, 0x01	; 1

000018d4 <.L1^B10>:
    18d4:	01 97       	sbiw	r24, 0x01	; 1
    18d6:	f1 f7       	brne	.-4      	; 0x18d4 <.L1^B10>
    18d8:	9e 01       	movw	r18, r28
    18da:	21 5b       	subi	r18, 0xB1	; 177
    18dc:	3f 4f       	sbci	r19, 0xFF	; 255
    18de:	f9 01       	movw	r30, r18
    18e0:	91 83       	std	Z+1, r25	; 0x01
    18e2:	80 83       	st	Z, r24

000018e4 <.Loc.209>:
	...

000018e6 <.L64>:
                    _delay_ms(100);
    18e6:	4c c2       	rjmp	.+1176   	; 0x1d80 <.L46>

000018e8 <.L56>:
                } else if (!ir_left_detected_flag && !ir_right_detected_flag && !boom_detected_flag && !ultrason_obstacle_flag && agv_can_go && button_already_pressed) {
    18e8:	80 91 08 02 	lds	r24, 0x0208	; 0x800208 <ir_left_detected_flag>
    18ec:	90 91 09 02 	lds	r25, 0x0209	; 0x800209 <ir_left_detected_flag+0x1>

000018f0 <.Loc.212>:
    18f0:	00 97       	sbiw	r24, 0x00	; 0
    18f2:	09 f0       	breq	.+2      	; 0x18f6 <.Loc.213>

000018f4 <L0^A>:
    18f4:	81 ca       	rjmp	.-2814   	; 0xdf8 <.L81>

000018f6 <.Loc.213>:
    18f6:	80 91 0a 02 	lds	r24, 0x020A	; 0x80020a <ir_right_detected_flag>
    18fa:	90 91 0b 02 	lds	r25, 0x020B	; 0x80020b <ir_right_detected_flag+0x1>

000018fe <.Loc.214>:
    18fe:	00 97       	sbiw	r24, 0x00	; 0
    1900:	09 f0       	breq	.+2      	; 0x1904 <.Loc.215>

00001902 <L0^A>:
    1902:	7a ca       	rjmp	.-2828   	; 0xdf8 <.L81>

00001904 <.Loc.215>:
    1904:	80 91 02 02 	lds	r24, 0x0202	; 0x800202 <boom_detected_flag>

00001908 <.Loc.216>:
    1908:	88 23       	and	r24, r24
    190a:	09 f0       	breq	.+2      	; 0x190e <.Loc.217>

0000190c <L0^A>:
    190c:	75 ca       	rjmp	.-2838   	; 0xdf8 <.L81>

0000190e <.Loc.217>:
    190e:	80 91 06 02 	lds	r24, 0x0206	; 0x800206 <ultrason_obstacle_flag>
    1912:	90 91 07 02 	lds	r25, 0x0207	; 0x800207 <ultrason_obstacle_flag+0x1>

00001916 <.Loc.218>:
    1916:	00 97       	sbiw	r24, 0x00	; 0
    1918:	09 f0       	breq	.+2      	; 0x191c <.Loc.219>

0000191a <L0^A>:
    191a:	6e ca       	rjmp	.-2852   	; 0xdf8 <.L81>

0000191c <.Loc.219>:
    191c:	80 91 00 02 	lds	r24, 0x0200	; 0x800200 <agv_can_go>
    1920:	90 91 01 02 	lds	r25, 0x0201	; 0x800201 <agv_can_go+0x1>
    1924:	00 97       	sbiw	r24, 0x00	; 0
    1926:	09 f4       	brne	.+2      	; 0x192a <.Loc.220>

00001928 <L0^A>:
    1928:	67 ca       	rjmp	.-2866   	; 0xdf8 <.L81>

0000192a <.Loc.220>:
    192a:	89 81       	ldd	r24, Y+1	; 0x01
    192c:	9a 81       	ldd	r25, Y+2	; 0x02
    192e:	00 97       	sbiw	r24, 0x00	; 0
    1930:	09 f4       	brne	.+2      	; 0x1934 <.Loc.221>

00001932 <L0^A>:
    1932:	62 ca       	rjmp	.-2876   	; 0xdf8 <.L81>

00001934 <.Loc.221>:
                    if (!path_exit_flag) {
    1934:	80 91 0c 02 	lds	r24, 0x020C	; 0x80020c <path_exit_flag>
    1938:	90 91 0d 02 	lds	r25, 0x020D	; 0x80020d <path_exit_flag+0x1>

0000193c <.Loc.222>:
    193c:	00 97       	sbiw	r24, 0x00	; 0
    193e:	09 f0       	breq	.+2      	; 0x1942 <L0^A+0x2>

00001940 <L0^A>:
    1940:	5b ca       	rjmp	.-2890   	; 0xdf8 <.L81>
    1942:	9e 01       	movw	r18, r28
    1944:	21 5a       	subi	r18, 0xA1	; 161
    1946:	3f 4f       	sbci	r19, 0xFF	; 255
    1948:	80 e0       	ldi	r24, 0x00	; 0
    194a:	90 e0       	ldi	r25, 0x00	; 0
    194c:	aa ef       	ldi	r26, 0xFA	; 250
    194e:	b4 e4       	ldi	r27, 0x44	; 68
    1950:	f9 01       	movw	r30, r18
    1952:	80 83       	st	Z, r24
    1954:	91 83       	std	Z+1, r25	; 0x01
    1956:	a2 83       	std	Z+2, r26	; 0x02
    1958:	b3 83       	std	Z+3, r27	; 0x03

0000195a <.LBB83>:
	__tmp = ((F_CPU) / 4e3) * __ms;
    195a:	8e 01       	movw	r16, r28
    195c:	0d 59       	subi	r16, 0x9D	; 157
    195e:	1f 4f       	sbci	r17, 0xFF	; 255
    1960:	ce 01       	movw	r24, r28
    1962:	81 5a       	subi	r24, 0xA1	; 161
    1964:	9f 4f       	sbci	r25, 0xFF	; 255
    1966:	20 e0       	ldi	r18, 0x00	; 0
    1968:	30 e0       	ldi	r19, 0x00	; 0
    196a:	4a e7       	ldi	r20, 0x7A	; 122
    196c:	55 e4       	ldi	r21, 0x45	; 69
    196e:	dc 01       	movw	r26, r24
    1970:	6d 91       	ld	r22, X+
    1972:	7d 91       	ld	r23, X+
    1974:	8d 91       	ld	r24, X+
    1976:	9c 91       	ld	r25, X
    1978:	0e 94 17 19 	call	0x322e	; 0x322e <__mulsf3>
    197c:	cf 50       	subi	r28, 0x0F	; 15
    197e:	df 4f       	sbci	r29, 0xFF	; 255
    1980:	68 83       	st	Y, r22
    1982:	79 83       	std	Y+1, r23	; 0x01
    1984:	8a 83       	std	Y+2, r24	; 0x02
    1986:	9b 83       	std	Y+3, r25	; 0x03
    1988:	c1 5f       	subi	r28, 0xF1	; 241
    198a:	d0 40       	sbci	r29, 0x00	; 0
    198c:	cf 50       	subi	r28, 0x0F	; 15
    198e:	df 4f       	sbci	r29, 0xFF	; 255
    1990:	88 81       	ld	r24, Y
    1992:	99 81       	ldd	r25, Y+1	; 0x01
    1994:	aa 81       	ldd	r26, Y+2	; 0x02
    1996:	bb 81       	ldd	r27, Y+3	; 0x03
    1998:	c1 5f       	subi	r28, 0xF1	; 241
    199a:	d0 40       	sbci	r29, 0x00	; 0
    199c:	f8 01       	movw	r30, r16
    199e:	80 83       	st	Z, r24
    19a0:	91 83       	std	Z+1, r25	; 0x01
    19a2:	a2 83       	std	Z+2, r26	; 0x02
    19a4:	b3 83       	std	Z+3, r27	; 0x03

000019a6 <.Loc.224>:
	if (__tmp < 1.0)
    19a6:	ce 01       	movw	r24, r28
    19a8:	8d 59       	subi	r24, 0x9D	; 157
    19aa:	9f 4f       	sbci	r25, 0xFF	; 255
    19ac:	20 e0       	ldi	r18, 0x00	; 0
    19ae:	30 e0       	ldi	r19, 0x00	; 0
    19b0:	40 e8       	ldi	r20, 0x80	; 128
    19b2:	5f e3       	ldi	r21, 0x3F	; 63
    19b4:	dc 01       	movw	r26, r24
    19b6:	6d 91       	ld	r22, X+
    19b8:	7d 91       	ld	r23, X+
    19ba:	8d 91       	ld	r24, X+
    19bc:	9c 91       	ld	r25, X
    19be:	0e 94 ba 17 	call	0x2f74	; 0x2f74 <__cmpsf2>
    19c2:	88 23       	and	r24, r24
    19c4:	4c f4       	brge	.+18     	; 0x19d8 <.L106>

000019c6 <.Loc.225>:
		__ticks = 1;
    19c6:	ce 01       	movw	r24, r28
    19c8:	89 59       	subi	r24, 0x99	; 153
    19ca:	9f 4f       	sbci	r25, 0xFF	; 255
    19cc:	21 e0       	ldi	r18, 0x01	; 1
    19ce:	30 e0       	ldi	r19, 0x00	; 0
    19d0:	fc 01       	movw	r30, r24
    19d2:	31 83       	std	Z+1, r19	; 0x01
    19d4:	20 83       	st	Z, r18
    19d6:	a5 c0       	rjmp	.+330    	; 0x1b22 <.L67>

000019d8 <.L106>:
	else if (__tmp > 65535)
    19d8:	ce 01       	movw	r24, r28
    19da:	8d 59       	subi	r24, 0x9D	; 157
    19dc:	9f 4f       	sbci	r25, 0xFF	; 255
    19de:	20 e0       	ldi	r18, 0x00	; 0
    19e0:	3f ef       	ldi	r19, 0xFF	; 255
    19e2:	4f e7       	ldi	r20, 0x7F	; 127
    19e4:	57 e4       	ldi	r21, 0x47	; 71
    19e6:	dc 01       	movw	r26, r24
    19e8:	6d 91       	ld	r22, X+
    19ea:	7d 91       	ld	r23, X+
    19ec:	8d 91       	ld	r24, X+
    19ee:	9c 91       	ld	r25, X
    19f0:	0e 94 12 19 	call	0x3224	; 0x3224 <__gesf2>
    19f4:	88 23       	and	r24, r24
    19f6:	09 f0       	breq	.+2      	; 0x19fa <L0^A>

000019f8 <L0^A>:
    19f8:	0c f4       	brge	.+2      	; 0x19fc <.Loc.227>

000019fa <L0^A>:
    19fa:	75 c0       	rjmp	.+234    	; 0x1ae6 <.L107>

000019fc <.Loc.227>:
		__ticks = (uint16_t) (__ms * 10.0);
    19fc:	ce 01       	movw	r24, r28
    19fe:	81 5a       	subi	r24, 0xA1	; 161
    1a00:	9f 4f       	sbci	r25, 0xFF	; 255
    1a02:	20 e0       	ldi	r18, 0x00	; 0
    1a04:	30 e0       	ldi	r19, 0x00	; 0
    1a06:	40 e2       	ldi	r20, 0x20	; 32
    1a08:	51 e4       	ldi	r21, 0x41	; 65
    1a0a:	fc 01       	movw	r30, r24
    1a0c:	60 81       	ld	r22, Z
    1a0e:	71 81       	ldd	r23, Z+1	; 0x01
    1a10:	82 81       	ldd	r24, Z+2	; 0x02
    1a12:	93 81       	ldd	r25, Z+3	; 0x03
    1a14:	0e 94 17 19 	call	0x322e	; 0x322e <__mulsf3>
    1a18:	cb 50       	subi	r28, 0x0B	; 11
    1a1a:	df 4f       	sbci	r29, 0xFF	; 255
    1a1c:	68 83       	st	Y, r22
    1a1e:	79 83       	std	Y+1, r23	; 0x01
    1a20:	8a 83       	std	Y+2, r24	; 0x02
    1a22:	9b 83       	std	Y+3, r25	; 0x03
    1a24:	c5 5f       	subi	r28, 0xF5	; 245
    1a26:	d0 40       	sbci	r29, 0x00	; 0
    1a28:	cb 50       	subi	r28, 0x0B	; 11
    1a2a:	df 4f       	sbci	r29, 0xFF	; 255
    1a2c:	88 81       	ld	r24, Y
    1a2e:	99 81       	ldd	r25, Y+1	; 0x01
    1a30:	aa 81       	ldd	r26, Y+2	; 0x02
    1a32:	bb 81       	ldd	r27, Y+3	; 0x03
    1a34:	c5 5f       	subi	r28, 0xF5	; 245
    1a36:	d0 40       	sbci	r29, 0x00	; 0
    1a38:	cf 56       	subi	r28, 0x6F	; 111
    1a3a:	df 4f       	sbci	r29, 0xFF	; 255
    1a3c:	88 83       	st	Y, r24
    1a3e:	99 83       	std	Y+1, r25	; 0x01
    1a40:	aa 83       	std	Y+2, r26	; 0x02
    1a42:	bb 83       	std	Y+3, r27	; 0x03
    1a44:	c1 59       	subi	r28, 0x91	; 145
    1a46:	d0 40       	sbci	r29, 0x00	; 0

00001a48 <.Loc.228>:
    1a48:	8e 01       	movw	r16, r28
    1a4a:	09 59       	subi	r16, 0x99	; 153
    1a4c:	1f 4f       	sbci	r17, 0xFF	; 255
    1a4e:	cf 56       	subi	r28, 0x6F	; 111
    1a50:	df 4f       	sbci	r29, 0xFF	; 255
    1a52:	68 81       	ld	r22, Y
    1a54:	79 81       	ldd	r23, Y+1	; 0x01
    1a56:	8a 81       	ldd	r24, Y+2	; 0x02
    1a58:	9b 81       	ldd	r25, Y+3	; 0x03
    1a5a:	c1 59       	subi	r28, 0x91	; 145
    1a5c:	d0 40       	sbci	r29, 0x00	; 0
    1a5e:	0e 94 31 18 	call	0x3062	; 0x3062 <__fixunssfsi>
    1a62:	c7 50       	subi	r28, 0x07	; 7
    1a64:	df 4f       	sbci	r29, 0xFF	; 255
    1a66:	68 83       	st	Y, r22
    1a68:	79 83       	std	Y+1, r23	; 0x01
    1a6a:	8a 83       	std	Y+2, r24	; 0x02
    1a6c:	9b 83       	std	Y+3, r25	; 0x03
    1a6e:	c9 5f       	subi	r28, 0xF9	; 249
    1a70:	d0 40       	sbci	r29, 0x00	; 0
    1a72:	c7 50       	subi	r28, 0x07	; 7
    1a74:	df 4f       	sbci	r29, 0xFF	; 255
    1a76:	e8 81       	ld	r30, Y
    1a78:	f9 81       	ldd	r31, Y+1	; 0x01
    1a7a:	c9 5f       	subi	r28, 0xF9	; 249
    1a7c:	d0 40       	sbci	r29, 0x00	; 0
    1a7e:	d8 01       	movw	r26, r16
    1a80:	11 96       	adiw	r26, 0x01	; 1
    1a82:	fc 93       	st	X, r31
    1a84:	ee 93       	st	-X, r30

00001a86 <.Loc.229>:
		while(__ticks)
    1a86:	26 c0       	rjmp	.+76     	; 0x1ad4 <.L70>

00001a88 <.L71>:
    1a88:	ce 01       	movw	r24, r28
    1a8a:	87 59       	subi	r24, 0x97	; 151
    1a8c:	9f 4f       	sbci	r25, 0xFF	; 255
    1a8e:	20 e9       	ldi	r18, 0x90	; 144
    1a90:	31 e0       	ldi	r19, 0x01	; 1
    1a92:	dc 01       	movw	r26, r24
    1a94:	2d 93       	st	X+, r18
    1a96:	3c 93       	st	X, r19

00001a98 <.LBB85>:
    1a98:	ce 01       	movw	r24, r28
    1a9a:	87 59       	subi	r24, 0x97	; 151
    1a9c:	9f 4f       	sbci	r25, 0xFF	; 255
    1a9e:	fc 01       	movw	r30, r24
    1aa0:	80 81       	ld	r24, Z
    1aa2:	91 81       	ldd	r25, Z+1	; 0x01

00001aa4 <.L1^B11>:
    1aa4:	01 97       	sbiw	r24, 0x01	; 1
    1aa6:	f1 f7       	brne	.-4      	; 0x1aa4 <.L1^B11>
    1aa8:	9e 01       	movw	r18, r28
    1aaa:	27 59       	subi	r18, 0x97	; 151
    1aac:	3f 4f       	sbci	r19, 0xFF	; 255
    1aae:	d9 01       	movw	r26, r18
    1ab0:	8d 93       	st	X+, r24
    1ab2:	9c 93       	st	X, r25

00001ab4 <.Loc.231>:
	...

00001ab6 <.LBE85>:
			__ticks --;
    1ab6:	ce 01       	movw	r24, r28
    1ab8:	89 59       	subi	r24, 0x99	; 153
    1aba:	9f 4f       	sbci	r25, 0xFF	; 255
    1abc:	9e 01       	movw	r18, r28
    1abe:	29 59       	subi	r18, 0x99	; 153
    1ac0:	3f 4f       	sbci	r19, 0xFF	; 255
    1ac2:	f9 01       	movw	r30, r18
    1ac4:	20 81       	ld	r18, Z
    1ac6:	31 81       	ldd	r19, Z+1	; 0x01
    1ac8:	21 50       	subi	r18, 0x01	; 1
    1aca:	31 09       	sbc	r19, r1
    1acc:	dc 01       	movw	r26, r24
    1ace:	11 96       	adiw	r26, 0x01	; 1
    1ad0:	3c 93       	st	X, r19
    1ad2:	2e 93       	st	-X, r18

00001ad4 <.L70>:
		while(__ticks)
    1ad4:	ce 01       	movw	r24, r28
    1ad6:	89 59       	subi	r24, 0x99	; 153
    1ad8:	9f 4f       	sbci	r25, 0xFF	; 255
    1ada:	fc 01       	movw	r30, r24
    1adc:	80 81       	ld	r24, Z
    1ade:	91 81       	ldd	r25, Z+1	; 0x01
    1ae0:	00 97       	sbiw	r24, 0x00	; 0
    1ae2:	91 f6       	brne	.-92     	; 0x1a88 <.L71>

00001ae4 <.Loc.234>:
		return;
    1ae4:	39 c0       	rjmp	.+114    	; 0x1b58 <.L72>

00001ae6 <.L107>:
		__ticks = (uint16_t)__tmp;
    1ae6:	8e 01       	movw	r16, r28
    1ae8:	09 59       	subi	r16, 0x99	; 153
    1aea:	1f 4f       	sbci	r17, 0xFF	; 255
    1aec:	ce 01       	movw	r24, r28
    1aee:	8d 59       	subi	r24, 0x9D	; 157
    1af0:	9f 4f       	sbci	r25, 0xFF	; 255
    1af2:	dc 01       	movw	r26, r24
    1af4:	6d 91       	ld	r22, X+
    1af6:	7d 91       	ld	r23, X+
    1af8:	8d 91       	ld	r24, X+
    1afa:	9c 91       	ld	r25, X
    1afc:	0e 94 31 18 	call	0x3062	; 0x3062 <__fixunssfsi>
    1b00:	c3 50       	subi	r28, 0x03	; 3
    1b02:	df 4f       	sbci	r29, 0xFF	; 255
    1b04:	68 83       	st	Y, r22
    1b06:	79 83       	std	Y+1, r23	; 0x01
    1b08:	8a 83       	std	Y+2, r24	; 0x02
    1b0a:	9b 83       	std	Y+3, r25	; 0x03
    1b0c:	cd 5f       	subi	r28, 0xFD	; 253
    1b0e:	d0 40       	sbci	r29, 0x00	; 0
    1b10:	c3 50       	subi	r28, 0x03	; 3
    1b12:	df 4f       	sbci	r29, 0xFF	; 255
    1b14:	88 81       	ld	r24, Y
    1b16:	99 81       	ldd	r25, Y+1	; 0x01
    1b18:	cd 5f       	subi	r28, 0xFD	; 253
    1b1a:	d0 40       	sbci	r29, 0x00	; 0
    1b1c:	f8 01       	movw	r30, r16
    1b1e:	91 83       	std	Z+1, r25	; 0x01
    1b20:	80 83       	st	Z, r24

00001b22 <.L67>:
    1b22:	ce 01       	movw	r24, r28
    1b24:	85 59       	subi	r24, 0x95	; 149
    1b26:	9f 4f       	sbci	r25, 0xFF	; 255
    1b28:	9e 01       	movw	r18, r28
    1b2a:	29 59       	subi	r18, 0x99	; 153
    1b2c:	3f 4f       	sbci	r19, 0xFF	; 255
    1b2e:	d9 01       	movw	r26, r18
    1b30:	2d 91       	ld	r18, X+
    1b32:	3c 91       	ld	r19, X
    1b34:	fc 01       	movw	r30, r24
    1b36:	31 83       	std	Z+1, r19	; 0x01
    1b38:	20 83       	st	Z, r18

00001b3a <.LBB87>:
    1b3a:	ce 01       	movw	r24, r28
    1b3c:	85 59       	subi	r24, 0x95	; 149
    1b3e:	9f 4f       	sbci	r25, 0xFF	; 255
    1b40:	dc 01       	movw	r26, r24
    1b42:	8d 91       	ld	r24, X+
    1b44:	9c 91       	ld	r25, X

00001b46 <.L1^B12>:
    1b46:	01 97       	sbiw	r24, 0x01	; 1
    1b48:	f1 f7       	brne	.-4      	; 0x1b46 <.L1^B12>
    1b4a:	9e 01       	movw	r18, r28
    1b4c:	25 59       	subi	r18, 0x95	; 149
    1b4e:	3f 4f       	sbci	r19, 0xFF	; 255
    1b50:	f9 01       	movw	r30, r18
    1b52:	91 83       	std	Z+1, r25	; 0x01
    1b54:	80 83       	st	Z, r24

00001b56 <.Loc.237>:
	...

00001b58 <.L72>:
                        _delay_ms(2000);
                        agv_links_bocht();
    1b58:	0e 94 4f 02 	call	0x49e	; 0x49e <agv_links_bocht>

00001b5c <.Loc.239>:
                        path_exit_flag = 1; // Set flag to indicate AGV has exited the path
    1b5c:	81 e0       	ldi	r24, 0x01	; 1
    1b5e:	90 e0       	ldi	r25, 0x00	; 0
    1b60:	90 93 0d 02 	sts	0x020D, r25	; 0x80020d <path_exit_flag+0x1>
    1b64:	80 93 0c 02 	sts	0x020C, r24	; 0x80020c <path_exit_flag>
    1b68:	9e 01       	movw	r18, r28
    1b6a:	2f 5a       	subi	r18, 0xAF	; 175
    1b6c:	3f 4f       	sbci	r19, 0xFF	; 255
    1b6e:	80 e0       	ldi	r24, 0x00	; 0
    1b70:	90 e0       	ldi	r25, 0x00	; 0
    1b72:	a8 ec       	ldi	r26, 0xC8	; 200
    1b74:	b2 e4       	ldi	r27, 0x42	; 66
    1b76:	f9 01       	movw	r30, r18
    1b78:	80 83       	st	Z, r24
    1b7a:	91 83       	std	Z+1, r25	; 0x01
    1b7c:	a2 83       	std	Z+2, r26	; 0x02
    1b7e:	b3 83       	std	Z+3, r27	; 0x03

00001b80 <.LBB89>:
	__tmp = ((F_CPU) / 4e3) * __ms;
    1b80:	8e 01       	movw	r16, r28
    1b82:	0b 5a       	subi	r16, 0xAB	; 171
    1b84:	1f 4f       	sbci	r17, 0xFF	; 255
    1b86:	ce 01       	movw	r24, r28
    1b88:	8f 5a       	subi	r24, 0xAF	; 175
    1b8a:	9f 4f       	sbci	r25, 0xFF	; 255
    1b8c:	20 e0       	ldi	r18, 0x00	; 0
    1b8e:	30 e0       	ldi	r19, 0x00	; 0
    1b90:	4a e7       	ldi	r20, 0x7A	; 122
    1b92:	55 e4       	ldi	r21, 0x45	; 69
    1b94:	dc 01       	movw	r26, r24
    1b96:	6d 91       	ld	r22, X+
    1b98:	7d 91       	ld	r23, X+
    1b9a:	8d 91       	ld	r24, X+
    1b9c:	9c 91       	ld	r25, X
    1b9e:	0e 94 17 19 	call	0x322e	; 0x322e <__mulsf3>
    1ba2:	cf 5f       	subi	r28, 0xFF	; 255
    1ba4:	de 4f       	sbci	r29, 0xFE	; 254
    1ba6:	68 83       	st	Y, r22
    1ba8:	79 83       	std	Y+1, r23	; 0x01
    1baa:	8a 83       	std	Y+2, r24	; 0x02
    1bac:	9b 83       	std	Y+3, r25	; 0x03
    1bae:	c1 50       	subi	r28, 0x01	; 1
    1bb0:	d1 40       	sbci	r29, 0x01	; 1
    1bb2:	cf 5f       	subi	r28, 0xFF	; 255
    1bb4:	de 4f       	sbci	r29, 0xFE	; 254
    1bb6:	88 81       	ld	r24, Y
    1bb8:	99 81       	ldd	r25, Y+1	; 0x01
    1bba:	aa 81       	ldd	r26, Y+2	; 0x02
    1bbc:	bb 81       	ldd	r27, Y+3	; 0x03
    1bbe:	c1 50       	subi	r28, 0x01	; 1
    1bc0:	d1 40       	sbci	r29, 0x01	; 1
    1bc2:	f8 01       	movw	r30, r16
    1bc4:	80 83       	st	Z, r24
    1bc6:	91 83       	std	Z+1, r25	; 0x01
    1bc8:	a2 83       	std	Z+2, r26	; 0x02
    1bca:	b3 83       	std	Z+3, r27	; 0x03

00001bcc <.Loc.241>:
	if (__tmp < 1.0)
    1bcc:	ce 01       	movw	r24, r28
    1bce:	8b 5a       	subi	r24, 0xAB	; 171
    1bd0:	9f 4f       	sbci	r25, 0xFF	; 255
    1bd2:	20 e0       	ldi	r18, 0x00	; 0
    1bd4:	30 e0       	ldi	r19, 0x00	; 0
    1bd6:	40 e8       	ldi	r20, 0x80	; 128
    1bd8:	5f e3       	ldi	r21, 0x3F	; 63
    1bda:	dc 01       	movw	r26, r24
    1bdc:	6d 91       	ld	r22, X+
    1bde:	7d 91       	ld	r23, X+
    1be0:	8d 91       	ld	r24, X+
    1be2:	9c 91       	ld	r25, X
    1be4:	0e 94 ba 17 	call	0x2f74	; 0x2f74 <__cmpsf2>
    1be8:	88 23       	and	r24, r24
    1bea:	4c f4       	brge	.+18     	; 0x1bfe <.L108>

00001bec <.Loc.242>:
		__ticks = 1;
    1bec:	ce 01       	movw	r24, r28
    1bee:	87 5a       	subi	r24, 0xA7	; 167
    1bf0:	9f 4f       	sbci	r25, 0xFF	; 255
    1bf2:	21 e0       	ldi	r18, 0x01	; 1
    1bf4:	30 e0       	ldi	r19, 0x00	; 0
    1bf6:	fc 01       	movw	r30, r24
    1bf8:	31 83       	std	Z+1, r19	; 0x01
    1bfa:	20 83       	st	Z, r18
    1bfc:	a5 c0       	rjmp	.+330    	; 0x1d48 <.L75>

00001bfe <.L108>:
	else if (__tmp > 65535)
    1bfe:	ce 01       	movw	r24, r28
    1c00:	8b 5a       	subi	r24, 0xAB	; 171
    1c02:	9f 4f       	sbci	r25, 0xFF	; 255
    1c04:	20 e0       	ldi	r18, 0x00	; 0
    1c06:	3f ef       	ldi	r19, 0xFF	; 255
    1c08:	4f e7       	ldi	r20, 0x7F	; 127
    1c0a:	57 e4       	ldi	r21, 0x47	; 71
    1c0c:	dc 01       	movw	r26, r24
    1c0e:	6d 91       	ld	r22, X+
    1c10:	7d 91       	ld	r23, X+
    1c12:	8d 91       	ld	r24, X+
    1c14:	9c 91       	ld	r25, X
    1c16:	0e 94 12 19 	call	0x3224	; 0x3224 <__gesf2>
    1c1a:	88 23       	and	r24, r24
    1c1c:	09 f0       	breq	.+2      	; 0x1c20 <L0^A>

00001c1e <L0^A>:
    1c1e:	0c f4       	brge	.+2      	; 0x1c22 <.Loc.244>

00001c20 <L0^A>:
    1c20:	75 c0       	rjmp	.+234    	; 0x1d0c <.L109>

00001c22 <.Loc.244>:
		__ticks = (uint16_t) (__ms * 10.0);
    1c22:	ce 01       	movw	r24, r28
    1c24:	8f 5a       	subi	r24, 0xAF	; 175
    1c26:	9f 4f       	sbci	r25, 0xFF	; 255
    1c28:	20 e0       	ldi	r18, 0x00	; 0
    1c2a:	30 e0       	ldi	r19, 0x00	; 0
    1c2c:	40 e2       	ldi	r20, 0x20	; 32
    1c2e:	51 e4       	ldi	r21, 0x41	; 65
    1c30:	fc 01       	movw	r30, r24
    1c32:	60 81       	ld	r22, Z
    1c34:	71 81       	ldd	r23, Z+1	; 0x01
    1c36:	82 81       	ldd	r24, Z+2	; 0x02
    1c38:	93 81       	ldd	r25, Z+3	; 0x03
    1c3a:	0e 94 17 19 	call	0x322e	; 0x322e <__mulsf3>
    1c3e:	cb 5f       	subi	r28, 0xFB	; 251
    1c40:	de 4f       	sbci	r29, 0xFE	; 254
    1c42:	68 83       	st	Y, r22
    1c44:	79 83       	std	Y+1, r23	; 0x01
    1c46:	8a 83       	std	Y+2, r24	; 0x02
    1c48:	9b 83       	std	Y+3, r25	; 0x03
    1c4a:	c5 50       	subi	r28, 0x05	; 5
    1c4c:	d1 40       	sbci	r29, 0x01	; 1
    1c4e:	cb 5f       	subi	r28, 0xFB	; 251
    1c50:	de 4f       	sbci	r29, 0xFE	; 254
    1c52:	88 81       	ld	r24, Y
    1c54:	99 81       	ldd	r25, Y+1	; 0x01
    1c56:	aa 81       	ldd	r26, Y+2	; 0x02
    1c58:	bb 81       	ldd	r27, Y+3	; 0x03
    1c5a:	c5 50       	subi	r28, 0x05	; 5
    1c5c:	d1 40       	sbci	r29, 0x01	; 1
    1c5e:	c3 57       	subi	r28, 0x73	; 115
    1c60:	df 4f       	sbci	r29, 0xFF	; 255
    1c62:	88 83       	st	Y, r24
    1c64:	99 83       	std	Y+1, r25	; 0x01
    1c66:	aa 83       	std	Y+2, r26	; 0x02
    1c68:	bb 83       	std	Y+3, r27	; 0x03
    1c6a:	cd 58       	subi	r28, 0x8D	; 141
    1c6c:	d0 40       	sbci	r29, 0x00	; 0

00001c6e <.Loc.245>:
    1c6e:	8e 01       	movw	r16, r28
    1c70:	07 5a       	subi	r16, 0xA7	; 167
    1c72:	1f 4f       	sbci	r17, 0xFF	; 255
    1c74:	c3 57       	subi	r28, 0x73	; 115
    1c76:	df 4f       	sbci	r29, 0xFF	; 255
    1c78:	68 81       	ld	r22, Y
    1c7a:	79 81       	ldd	r23, Y+1	; 0x01
    1c7c:	8a 81       	ldd	r24, Y+2	; 0x02
    1c7e:	9b 81       	ldd	r25, Y+3	; 0x03
    1c80:	cd 58       	subi	r28, 0x8D	; 141
    1c82:	d0 40       	sbci	r29, 0x00	; 0
    1c84:	0e 94 31 18 	call	0x3062	; 0x3062 <__fixunssfsi>
    1c88:	c7 5f       	subi	r28, 0xF7	; 247
    1c8a:	de 4f       	sbci	r29, 0xFE	; 254
    1c8c:	68 83       	st	Y, r22
    1c8e:	79 83       	std	Y+1, r23	; 0x01
    1c90:	8a 83       	std	Y+2, r24	; 0x02
    1c92:	9b 83       	std	Y+3, r25	; 0x03
    1c94:	c9 50       	subi	r28, 0x09	; 9
    1c96:	d1 40       	sbci	r29, 0x01	; 1
    1c98:	c7 5f       	subi	r28, 0xF7	; 247
    1c9a:	de 4f       	sbci	r29, 0xFE	; 254
    1c9c:	e8 81       	ld	r30, Y
    1c9e:	f9 81       	ldd	r31, Y+1	; 0x01
    1ca0:	c9 50       	subi	r28, 0x09	; 9
    1ca2:	d1 40       	sbci	r29, 0x01	; 1
    1ca4:	d8 01       	movw	r26, r16
    1ca6:	11 96       	adiw	r26, 0x01	; 1
    1ca8:	fc 93       	st	X, r31
    1caa:	ee 93       	st	-X, r30

00001cac <.Loc.246>:
		while(__ticks)
    1cac:	26 c0       	rjmp	.+76     	; 0x1cfa <.L78>

00001cae <.L79>:
    1cae:	ce 01       	movw	r24, r28
    1cb0:	85 5a       	subi	r24, 0xA5	; 165
    1cb2:	9f 4f       	sbci	r25, 0xFF	; 255
    1cb4:	20 e9       	ldi	r18, 0x90	; 144
    1cb6:	31 e0       	ldi	r19, 0x01	; 1
    1cb8:	dc 01       	movw	r26, r24
    1cba:	2d 93       	st	X+, r18
    1cbc:	3c 93       	st	X, r19

00001cbe <.LBB91>:
    1cbe:	ce 01       	movw	r24, r28
    1cc0:	85 5a       	subi	r24, 0xA5	; 165
    1cc2:	9f 4f       	sbci	r25, 0xFF	; 255
    1cc4:	fc 01       	movw	r30, r24
    1cc6:	80 81       	ld	r24, Z
    1cc8:	91 81       	ldd	r25, Z+1	; 0x01

00001cca <.L1^B13>:
    1cca:	01 97       	sbiw	r24, 0x01	; 1
    1ccc:	f1 f7       	brne	.-4      	; 0x1cca <.L1^B13>
    1cce:	9e 01       	movw	r18, r28
    1cd0:	25 5a       	subi	r18, 0xA5	; 165
    1cd2:	3f 4f       	sbci	r19, 0xFF	; 255
    1cd4:	d9 01       	movw	r26, r18
    1cd6:	8d 93       	st	X+, r24
    1cd8:	9c 93       	st	X, r25

00001cda <.Loc.248>:
	...

00001cdc <.LBE91>:
			__ticks --;
    1cdc:	ce 01       	movw	r24, r28
    1cde:	87 5a       	subi	r24, 0xA7	; 167
    1ce0:	9f 4f       	sbci	r25, 0xFF	; 255
    1ce2:	9e 01       	movw	r18, r28
    1ce4:	27 5a       	subi	r18, 0xA7	; 167
    1ce6:	3f 4f       	sbci	r19, 0xFF	; 255
    1ce8:	f9 01       	movw	r30, r18
    1cea:	20 81       	ld	r18, Z
    1cec:	31 81       	ldd	r19, Z+1	; 0x01
    1cee:	21 50       	subi	r18, 0x01	; 1
    1cf0:	31 09       	sbc	r19, r1
    1cf2:	dc 01       	movw	r26, r24
    1cf4:	11 96       	adiw	r26, 0x01	; 1
    1cf6:	3c 93       	st	X, r19
    1cf8:	2e 93       	st	-X, r18

00001cfa <.L78>:
		while(__ticks)
    1cfa:	ce 01       	movw	r24, r28
    1cfc:	87 5a       	subi	r24, 0xA7	; 167
    1cfe:	9f 4f       	sbci	r25, 0xFF	; 255
    1d00:	fc 01       	movw	r30, r24
    1d02:	80 81       	ld	r24, Z
    1d04:	91 81       	ldd	r25, Z+1	; 0x01
    1d06:	00 97       	sbiw	r24, 0x00	; 0
    1d08:	91 f6       	brne	.-92     	; 0x1cae <.L79>

00001d0a <.Loc.251>:
		return;
    1d0a:	3a c0       	rjmp	.+116    	; 0x1d80 <.L46>

00001d0c <.L109>:
		__ticks = (uint16_t)__tmp;
    1d0c:	8e 01       	movw	r16, r28
    1d0e:	07 5a       	subi	r16, 0xA7	; 167
    1d10:	1f 4f       	sbci	r17, 0xFF	; 255
    1d12:	ce 01       	movw	r24, r28
    1d14:	8b 5a       	subi	r24, 0xAB	; 171
    1d16:	9f 4f       	sbci	r25, 0xFF	; 255
    1d18:	dc 01       	movw	r26, r24
    1d1a:	6d 91       	ld	r22, X+
    1d1c:	7d 91       	ld	r23, X+
    1d1e:	8d 91       	ld	r24, X+
    1d20:	9c 91       	ld	r25, X
    1d22:	0e 94 31 18 	call	0x3062	; 0x3062 <__fixunssfsi>
    1d26:	c3 5f       	subi	r28, 0xF3	; 243
    1d28:	de 4f       	sbci	r29, 0xFE	; 254
    1d2a:	68 83       	st	Y, r22
    1d2c:	79 83       	std	Y+1, r23	; 0x01
    1d2e:	8a 83       	std	Y+2, r24	; 0x02
    1d30:	9b 83       	std	Y+3, r25	; 0x03
    1d32:	cd 50       	subi	r28, 0x0D	; 13
    1d34:	d1 40       	sbci	r29, 0x01	; 1
    1d36:	c3 5f       	subi	r28, 0xF3	; 243
    1d38:	de 4f       	sbci	r29, 0xFE	; 254
    1d3a:	88 81       	ld	r24, Y
    1d3c:	99 81       	ldd	r25, Y+1	; 0x01
    1d3e:	cd 50       	subi	r28, 0x0D	; 13
    1d40:	d1 40       	sbci	r29, 0x01	; 1
    1d42:	f8 01       	movw	r30, r16
    1d44:	91 83       	std	Z+1, r25	; 0x01
    1d46:	80 83       	st	Z, r24

00001d48 <.L75>:
    1d48:	ce 01       	movw	r24, r28
    1d4a:	83 5a       	subi	r24, 0xA3	; 163
    1d4c:	9f 4f       	sbci	r25, 0xFF	; 255
    1d4e:	9e 01       	movw	r18, r28
    1d50:	27 5a       	subi	r18, 0xA7	; 167
    1d52:	3f 4f       	sbci	r19, 0xFF	; 255
    1d54:	d9 01       	movw	r26, r18
    1d56:	2d 91       	ld	r18, X+
    1d58:	3c 91       	ld	r19, X
    1d5a:	fc 01       	movw	r30, r24
    1d5c:	31 83       	std	Z+1, r19	; 0x01
    1d5e:	20 83       	st	Z, r18

00001d60 <.LBB93>:
    1d60:	ce 01       	movw	r24, r28
    1d62:	83 5a       	subi	r24, 0xA3	; 163
    1d64:	9f 4f       	sbci	r25, 0xFF	; 255
    1d66:	dc 01       	movw	r26, r24
    1d68:	8d 91       	ld	r24, X+
    1d6a:	9c 91       	ld	r25, X
    1d6c:	11 97       	sbiw	r26, 0x01	; 1

00001d6e <.L1^B14>:
    1d6e:	01 97       	sbiw	r24, 0x01	; 1
    1d70:	f1 f7       	brne	.-4      	; 0x1d6e <.L1^B14>
    1d72:	9e 01       	movw	r18, r28
    1d74:	23 5a       	subi	r18, 0xA3	; 163
    1d76:	3f 4f       	sbci	r19, 0xFF	; 255
    1d78:	f9 01       	movw	r30, r18
    1d7a:	91 83       	std	Z+1, r25	; 0x01
    1d7c:	80 83       	st	Z, r24

00001d7e <.Loc.254>:
	...

00001d80 <.L46>:
    while (1) {
    1d80:	3b c8       	rjmp	.-3978   	; 0xdf8 <.L81>

00001d82 <PIDController_Init>:
#include <avr/io.h>
#include "PID.h"

void PIDController_Init(PIDController* pid, float Kp, float Ki, float Kd, float output_min, float output_max) {
    1d82:	8f 92       	push	r8
    1d84:	9f 92       	push	r9
    1d86:	af 92       	push	r10
    1d88:	bf 92       	push	r11
    1d8a:	cf 92       	push	r12
    1d8c:	df 92       	push	r13
    1d8e:	ef 92       	push	r14
    1d90:	ff 92       	push	r15
    1d92:	0f 93       	push	r16
    1d94:	1f 93       	push	r17
    1d96:	cf 93       	push	r28
    1d98:	df 93       	push	r29
    1d9a:	cd b7       	in	r28, 0x3d	; 61
    1d9c:	de b7       	in	r29, 0x3e	; 62
    1d9e:	62 97       	sbiw	r28, 0x12	; 18
    1da0:	0f b6       	in	r0, 0x3f	; 63
    1da2:	f8 94       	cli
    1da4:	de bf       	out	0x3e, r29	; 62
    1da6:	0f be       	out	0x3f, r0	; 63
    1da8:	cd bf       	out	0x3d, r28	; 61
    1daa:	9a 83       	std	Y+2, r25	; 0x02
    1dac:	89 83       	std	Y+1, r24	; 0x01
    1dae:	4b 83       	std	Y+3, r20	; 0x03
    1db0:	5c 83       	std	Y+4, r21	; 0x04
    1db2:	6d 83       	std	Y+5, r22	; 0x05
    1db4:	7e 83       	std	Y+6, r23	; 0x06
    1db6:	0f 83       	std	Y+7, r16	; 0x07
    1db8:	18 87       	std	Y+8, r17	; 0x08
    1dba:	29 87       	std	Y+9, r18	; 0x09
    1dbc:	3a 87       	std	Y+10, r19	; 0x0a
    1dbe:	cb 86       	std	Y+11, r12	; 0x0b
    1dc0:	dc 86       	std	Y+12, r13	; 0x0c
    1dc2:	ed 86       	std	Y+13, r14	; 0x0d
    1dc4:	fe 86       	std	Y+14, r15	; 0x0e
    1dc6:	8f 86       	std	Y+15, r8	; 0x0f
    1dc8:	98 8a       	std	Y+16, r9	; 0x10
    1dca:	a9 8a       	std	Y+17, r10	; 0x11
    1dcc:	ba 8a       	std	Y+18, r11	; 0x12

00001dce <.Loc.1>:
    pid->Kp = Kp;
    1dce:	29 81       	ldd	r18, Y+1	; 0x01
    1dd0:	3a 81       	ldd	r19, Y+2	; 0x02
    1dd2:	8b 81       	ldd	r24, Y+3	; 0x03
    1dd4:	9c 81       	ldd	r25, Y+4	; 0x04
    1dd6:	ad 81       	ldd	r26, Y+5	; 0x05
    1dd8:	be 81       	ldd	r27, Y+6	; 0x06
    1dda:	f9 01       	movw	r30, r18
    1ddc:	80 83       	st	Z, r24
    1dde:	91 83       	std	Z+1, r25	; 0x01
    1de0:	a2 83       	std	Z+2, r26	; 0x02
    1de2:	b3 83       	std	Z+3, r27	; 0x03

00001de4 <.Loc.2>:
    pid->Ki = Ki;
    1de4:	29 81       	ldd	r18, Y+1	; 0x01
    1de6:	3a 81       	ldd	r19, Y+2	; 0x02
    1de8:	8f 81       	ldd	r24, Y+7	; 0x07
    1dea:	98 85       	ldd	r25, Y+8	; 0x08
    1dec:	a9 85       	ldd	r26, Y+9	; 0x09
    1dee:	ba 85       	ldd	r27, Y+10	; 0x0a
    1df0:	f9 01       	movw	r30, r18
    1df2:	84 83       	std	Z+4, r24	; 0x04
    1df4:	95 83       	std	Z+5, r25	; 0x05
    1df6:	a6 83       	std	Z+6, r26	; 0x06
    1df8:	b7 83       	std	Z+7, r27	; 0x07

00001dfa <.Loc.3>:
    pid->Kd = Kd;
    1dfa:	29 81       	ldd	r18, Y+1	; 0x01
    1dfc:	3a 81       	ldd	r19, Y+2	; 0x02
    1dfe:	8b 85       	ldd	r24, Y+11	; 0x0b
    1e00:	9c 85       	ldd	r25, Y+12	; 0x0c
    1e02:	ad 85       	ldd	r26, Y+13	; 0x0d
    1e04:	be 85       	ldd	r27, Y+14	; 0x0e
    1e06:	f9 01       	movw	r30, r18
    1e08:	80 87       	std	Z+8, r24	; 0x08
    1e0a:	91 87       	std	Z+9, r25	; 0x09
    1e0c:	a2 87       	std	Z+10, r26	; 0x0a
    1e0e:	b3 87       	std	Z+11, r27	; 0x0b

00001e10 <.Loc.4>:
    pid->previous_error = 0;
    1e10:	89 81       	ldd	r24, Y+1	; 0x01
    1e12:	9a 81       	ldd	r25, Y+2	; 0x02
    1e14:	fc 01       	movw	r30, r24
    1e16:	14 86       	std	Z+12, r1	; 0x0c
    1e18:	15 86       	std	Z+13, r1	; 0x0d
    1e1a:	16 86       	std	Z+14, r1	; 0x0e
    1e1c:	17 86       	std	Z+15, r1	; 0x0f

00001e1e <.Loc.5>:
    pid->integral = 0;
    1e1e:	89 81       	ldd	r24, Y+1	; 0x01
    1e20:	9a 81       	ldd	r25, Y+2	; 0x02
    1e22:	fc 01       	movw	r30, r24
    1e24:	10 8a       	std	Z+16, r1	; 0x10
    1e26:	11 8a       	std	Z+17, r1	; 0x11
    1e28:	12 8a       	std	Z+18, r1	; 0x12
    1e2a:	13 8a       	std	Z+19, r1	; 0x13

00001e2c <.Loc.6>:
    pid->setpoint = 0;
    1e2c:	89 81       	ldd	r24, Y+1	; 0x01
    1e2e:	9a 81       	ldd	r25, Y+2	; 0x02
    1e30:	fc 01       	movw	r30, r24
    1e32:	14 8a       	std	Z+20, r1	; 0x14
    1e34:	15 8a       	std	Z+21, r1	; 0x15
    1e36:	16 8a       	std	Z+22, r1	; 0x16
    1e38:	17 8a       	std	Z+23, r1	; 0x17

00001e3a <.Loc.7>:
    pid->output_min = output_min;
    1e3a:	29 81       	ldd	r18, Y+1	; 0x01
    1e3c:	3a 81       	ldd	r19, Y+2	; 0x02
    1e3e:	8f 85       	ldd	r24, Y+15	; 0x0f
    1e40:	98 89       	ldd	r25, Y+16	; 0x10
    1e42:	a9 89       	ldd	r26, Y+17	; 0x11
    1e44:	ba 89       	ldd	r27, Y+18	; 0x12
    1e46:	f9 01       	movw	r30, r18
    1e48:	84 8f       	std	Z+28, r24	; 0x1c
    1e4a:	95 8f       	std	Z+29, r25	; 0x1d
    1e4c:	a6 8f       	std	Z+30, r26	; 0x1e
    1e4e:	b7 8f       	std	Z+31, r27	; 0x1f

00001e50 <.Loc.8>:
    pid->output_max = output_max;
    1e50:	29 81       	ldd	r18, Y+1	; 0x01
    1e52:	3a 81       	ldd	r19, Y+2	; 0x02
    1e54:	8a a1       	ldd	r24, Y+34	; 0x22
    1e56:	9b a1       	ldd	r25, Y+35	; 0x23
    1e58:	ac a1       	ldd	r26, Y+36	; 0x24
    1e5a:	bd a1       	ldd	r27, Y+37	; 0x25
    1e5c:	f9 01       	movw	r30, r18
    1e5e:	80 a3       	std	Z+32, r24	; 0x20
    1e60:	91 a3       	std	Z+33, r25	; 0x21
    1e62:	a2 a3       	std	Z+34, r26	; 0x22
    1e64:	b3 a3       	std	Z+35, r27	; 0x23

00001e66 <.Loc.9>:
    pid->output = 0;
    1e66:	89 81       	ldd	r24, Y+1	; 0x01
    1e68:	9a 81       	ldd	r25, Y+2	; 0x02
    1e6a:	fc 01       	movw	r30, r24
    1e6c:	10 8e       	std	Z+24, r1	; 0x18
    1e6e:	11 8e       	std	Z+25, r1	; 0x19
    1e70:	12 8e       	std	Z+26, r1	; 0x1a
    1e72:	13 8e       	std	Z+27, r1	; 0x1b

00001e74 <.Loc.10>:
}
    1e74:	00 00       	nop
    1e76:	62 96       	adiw	r28, 0x12	; 18
    1e78:	0f b6       	in	r0, 0x3f	; 63
    1e7a:	f8 94       	cli
    1e7c:	de bf       	out	0x3e, r29	; 62
    1e7e:	0f be       	out	0x3f, r0	; 63
    1e80:	cd bf       	out	0x3d, r28	; 61
    1e82:	df 91       	pop	r29
    1e84:	cf 91       	pop	r28
    1e86:	1f 91       	pop	r17
    1e88:	0f 91       	pop	r16
    1e8a:	ff 90       	pop	r15
    1e8c:	ef 90       	pop	r14
    1e8e:	df 90       	pop	r13
    1e90:	cf 90       	pop	r12
    1e92:	bf 90       	pop	r11
    1e94:	af 90       	pop	r10
    1e96:	9f 90       	pop	r9
    1e98:	8f 90       	pop	r8
    1e9a:	08 95       	ret

00001e9c <PIDController_Update>:

float PIDController_Update(PIDController* pid, float measured_value) {
    1e9c:	cf 93       	push	r28
    1e9e:	df 93       	push	r29
    1ea0:	cd b7       	in	r28, 0x3d	; 61
    1ea2:	de b7       	in	r29, 0x3e	; 62
    1ea4:	c6 55       	subi	r28, 0x56	; 86
    1ea6:	d1 09       	sbc	r29, r1
    1ea8:	0f b6       	in	r0, 0x3f	; 63
    1eaa:	f8 94       	cli
    1eac:	de bf       	out	0x3e, r29	; 62
    1eae:	0f be       	out	0x3f, r0	; 63
    1eb0:	cd bf       	out	0x3d, r28	; 61
    1eb2:	9a 87       	std	Y+10, r25	; 0x0a
    1eb4:	89 87       	std	Y+9, r24	; 0x09
    1eb6:	4b 87       	std	Y+11, r20	; 0x0b
    1eb8:	5c 87       	std	Y+12, r21	; 0x0c
    1eba:	6d 87       	std	Y+13, r22	; 0x0d
    1ebc:	7e 87       	std	Y+14, r23	; 0x0e

00001ebe <.Loc.12>:
    float error = pid->setpoint - measured_value;
    1ebe:	89 85       	ldd	r24, Y+9	; 0x09
    1ec0:	9a 85       	ldd	r25, Y+10	; 0x0a
    1ec2:	dc 01       	movw	r26, r24
    1ec4:	54 96       	adiw	r26, 0x14	; 20
    1ec6:	2d 91       	ld	r18, X+
    1ec8:	3d 91       	ld	r19, X+
    1eca:	4d 91       	ld	r20, X+
    1ecc:	5c 91       	ld	r21, X
    1ece:	57 97       	sbiw	r26, 0x17	; 23
    1ed0:	2f 87       	std	Y+15, r18	; 0x0f
    1ed2:	38 8b       	std	Y+16, r19	; 0x10
    1ed4:	49 8b       	std	Y+17, r20	; 0x11
    1ed6:	5a 8b       	std	Y+18, r21	; 0x12

00001ed8 <.Loc.13>:
    1ed8:	2b 85       	ldd	r18, Y+11	; 0x0b
    1eda:	3c 85       	ldd	r19, Y+12	; 0x0c
    1edc:	4d 85       	ldd	r20, Y+13	; 0x0d
    1ede:	5e 85       	ldd	r21, Y+14	; 0x0e
    1ee0:	6f 85       	ldd	r22, Y+15	; 0x0f
    1ee2:	78 89       	ldd	r23, Y+16	; 0x10
    1ee4:	89 89       	ldd	r24, Y+17	; 0x11
    1ee6:	9a 89       	ldd	r25, Y+18	; 0x12
    1ee8:	0e 94 4d 17 	call	0x2e9a	; 0x2e9a <__subsf3>
    1eec:	6f ab       	std	Y+55, r22	; 0x37
    1eee:	78 af       	std	Y+56, r23	; 0x38
    1ef0:	89 af       	std	Y+57, r24	; 0x39
    1ef2:	9a af       	std	Y+58, r25	; 0x3a
    1ef4:	2f a9       	ldd	r18, Y+55	; 0x37
    1ef6:	38 ad       	ldd	r19, Y+56	; 0x38
    1ef8:	49 ad       	ldd	r20, Y+57	; 0x39
    1efa:	5a ad       	ldd	r21, Y+58	; 0x3a
    1efc:	29 83       	std	Y+1, r18	; 0x01
    1efe:	3a 83       	std	Y+2, r19	; 0x02
    1f00:	4b 83       	std	Y+3, r20	; 0x03
    1f02:	5c 83       	std	Y+4, r21	; 0x04

00001f04 <.Loc.14>:
    pid->integral += error;
    1f04:	89 85       	ldd	r24, Y+9	; 0x09
    1f06:	9a 85       	ldd	r25, Y+10	; 0x0a
    1f08:	dc 01       	movw	r26, r24
    1f0a:	50 96       	adiw	r26, 0x10	; 16
    1f0c:	2d 91       	ld	r18, X+
    1f0e:	3d 91       	ld	r19, X+
    1f10:	4d 91       	ld	r20, X+
    1f12:	5c 91       	ld	r21, X
    1f14:	53 97       	sbiw	r26, 0x13	; 19
    1f16:	2b 8b       	std	Y+19, r18	; 0x13
    1f18:	3c 8b       	std	Y+20, r19	; 0x14
    1f1a:	4d 8b       	std	Y+21, r20	; 0x15
    1f1c:	5e 8b       	std	Y+22, r21	; 0x16

00001f1e <.Loc.15>:
    1f1e:	29 81       	ldd	r18, Y+1	; 0x01
    1f20:	3a 81       	ldd	r19, Y+2	; 0x02
    1f22:	4b 81       	ldd	r20, Y+3	; 0x03
    1f24:	5c 81       	ldd	r21, Y+4	; 0x04
    1f26:	6b 89       	ldd	r22, Y+19	; 0x13
    1f28:	7c 89       	ldd	r23, Y+20	; 0x14
    1f2a:	8d 89       	ldd	r24, Y+21	; 0x15
    1f2c:	9e 89       	ldd	r25, Y+22	; 0x16
    1f2e:	0e 94 4e 17 	call	0x2e9c	; 0x2e9c <__addsf3>
    1f32:	6b af       	std	Y+59, r22	; 0x3b
    1f34:	7c af       	std	Y+60, r23	; 0x3c
    1f36:	8d af       	std	Y+61, r24	; 0x3d
    1f38:	9e af       	std	Y+62, r25	; 0x3e
    1f3a:	8b ad       	ldd	r24, Y+59	; 0x3b
    1f3c:	9c ad       	ldd	r25, Y+60	; 0x3c
    1f3e:	ad ad       	ldd	r26, Y+61	; 0x3d
    1f40:	be ad       	ldd	r27, Y+62	; 0x3e
    1f42:	29 85       	ldd	r18, Y+9	; 0x09
    1f44:	3a 85       	ldd	r19, Y+10	; 0x0a
    1f46:	f9 01       	movw	r30, r18
    1f48:	80 8b       	std	Z+16, r24	; 0x10
    1f4a:	91 8b       	std	Z+17, r25	; 0x11
    1f4c:	a2 8b       	std	Z+18, r26	; 0x12
    1f4e:	b3 8b       	std	Z+19, r27	; 0x13

00001f50 <.Loc.16>:
    float derivative = error - pid->previous_error;
    1f50:	89 85       	ldd	r24, Y+9	; 0x09
    1f52:	9a 85       	ldd	r25, Y+10	; 0x0a
    1f54:	fc 01       	movw	r30, r24
    1f56:	84 85       	ldd	r24, Z+12	; 0x0c
    1f58:	95 85       	ldd	r25, Z+13	; 0x0d
    1f5a:	a6 85       	ldd	r26, Z+14	; 0x0e
    1f5c:	b7 85       	ldd	r27, Z+15	; 0x0f

00001f5e <.Loc.17>:
    1f5e:	9c 01       	movw	r18, r24
    1f60:	ad 01       	movw	r20, r26
    1f62:	69 81       	ldd	r22, Y+1	; 0x01
    1f64:	7a 81       	ldd	r23, Y+2	; 0x02
    1f66:	8b 81       	ldd	r24, Y+3	; 0x03
    1f68:	9c 81       	ldd	r25, Y+4	; 0x04
    1f6a:	0e 94 4d 17 	call	0x2e9a	; 0x2e9a <__subsf3>
    1f6e:	23 96       	adiw	r28, 0x03	; 3
    1f70:	6c af       	std	Y+60, r22	; 0x3c
    1f72:	7d af       	std	Y+61, r23	; 0x3d
    1f74:	8e af       	std	Y+62, r24	; 0x3e
    1f76:	9f af       	std	Y+63, r25	; 0x3f
    1f78:	23 97       	sbiw	r28, 0x03	; 3
    1f7a:	23 96       	adiw	r28, 0x03	; 3
    1f7c:	2c ad       	ldd	r18, Y+60	; 0x3c
    1f7e:	3d ad       	ldd	r19, Y+61	; 0x3d
    1f80:	4e ad       	ldd	r20, Y+62	; 0x3e
    1f82:	5f ad       	ldd	r21, Y+63	; 0x3f
    1f84:	23 97       	sbiw	r28, 0x03	; 3
    1f86:	2d 83       	std	Y+5, r18	; 0x05
    1f88:	3e 83       	std	Y+6, r19	; 0x06
    1f8a:	4f 83       	std	Y+7, r20	; 0x07
    1f8c:	58 87       	std	Y+8, r21	; 0x08

00001f8e <.Loc.18>:
    pid->output = (pid->Kp * error) + (pid->Ki * pid->integral) + (pid->Kd * derivative);
    1f8e:	89 85       	ldd	r24, Y+9	; 0x09
    1f90:	9a 85       	ldd	r25, Y+10	; 0x0a
    1f92:	dc 01       	movw	r26, r24
    1f94:	2d 91       	ld	r18, X+
    1f96:	3d 91       	ld	r19, X+
    1f98:	4d 91       	ld	r20, X+
    1f9a:	5c 91       	ld	r21, X
    1f9c:	2f 8b       	std	Y+23, r18	; 0x17
    1f9e:	38 8f       	std	Y+24, r19	; 0x18
    1fa0:	49 8f       	std	Y+25, r20	; 0x19
    1fa2:	5a 8f       	std	Y+26, r21	; 0x1a

00001fa4 <.Loc.19>:
    1fa4:	29 81       	ldd	r18, Y+1	; 0x01
    1fa6:	3a 81       	ldd	r19, Y+2	; 0x02
    1fa8:	4b 81       	ldd	r20, Y+3	; 0x03
    1faa:	5c 81       	ldd	r21, Y+4	; 0x04
    1fac:	6f 89       	ldd	r22, Y+23	; 0x17
    1fae:	78 8d       	ldd	r23, Y+24	; 0x18
    1fb0:	89 8d       	ldd	r24, Y+25	; 0x19
    1fb2:	9a 8d       	ldd	r25, Y+26	; 0x1a
    1fb4:	0e 94 17 19 	call	0x322e	; 0x322e <__mulsf3>
    1fb8:	27 96       	adiw	r28, 0x07	; 7
    1fba:	6c af       	std	Y+60, r22	; 0x3c
    1fbc:	7d af       	std	Y+61, r23	; 0x3d
    1fbe:	8e af       	std	Y+62, r24	; 0x3e
    1fc0:	9f af       	std	Y+63, r25	; 0x3f
    1fc2:	27 97       	sbiw	r28, 0x07	; 7
    1fc4:	27 96       	adiw	r28, 0x07	; 7
    1fc6:	2c ad       	ldd	r18, Y+60	; 0x3c
    1fc8:	3d ad       	ldd	r19, Y+61	; 0x3d
    1fca:	4e ad       	ldd	r20, Y+62	; 0x3e
    1fcc:	5f ad       	ldd	r21, Y+63	; 0x3f
    1fce:	27 97       	sbiw	r28, 0x07	; 7
    1fd0:	2b 8f       	std	Y+27, r18	; 0x1b
    1fd2:	3c 8f       	std	Y+28, r19	; 0x1c
    1fd4:	4d 8f       	std	Y+29, r20	; 0x1d
    1fd6:	5e 8f       	std	Y+30, r21	; 0x1e

00001fd8 <.Loc.20>:
    1fd8:	89 85       	ldd	r24, Y+9	; 0x09
    1fda:	9a 85       	ldd	r25, Y+10	; 0x0a
    1fdc:	dc 01       	movw	r26, r24
    1fde:	14 96       	adiw	r26, 0x04	; 4
    1fe0:	2d 91       	ld	r18, X+
    1fe2:	3d 91       	ld	r19, X+
    1fe4:	4d 91       	ld	r20, X+
    1fe6:	5c 91       	ld	r21, X
    1fe8:	17 97       	sbiw	r26, 0x07	; 7
    1fea:	2f 8f       	std	Y+31, r18	; 0x1f
    1fec:	38 a3       	std	Y+32, r19	; 0x20
    1fee:	49 a3       	std	Y+33, r20	; 0x21
    1ff0:	5a a3       	std	Y+34, r21	; 0x22

00001ff2 <.Loc.21>:
    1ff2:	89 85       	ldd	r24, Y+9	; 0x09
    1ff4:	9a 85       	ldd	r25, Y+10	; 0x0a
    1ff6:	fc 01       	movw	r30, r24
    1ff8:	80 89       	ldd	r24, Z+16	; 0x10
    1ffa:	91 89       	ldd	r25, Z+17	; 0x11
    1ffc:	a2 89       	ldd	r26, Z+18	; 0x12
    1ffe:	b3 89       	ldd	r27, Z+19	; 0x13

00002000 <.Loc.22>:
    2000:	9c 01       	movw	r18, r24
    2002:	ad 01       	movw	r20, r26
    2004:	6f 8d       	ldd	r22, Y+31	; 0x1f
    2006:	78 a1       	ldd	r23, Y+32	; 0x20
    2008:	89 a1       	ldd	r24, Y+33	; 0x21
    200a:	9a a1       	ldd	r25, Y+34	; 0x22
    200c:	0e 94 17 19 	call	0x322e	; 0x322e <__mulsf3>
    2010:	2b 96       	adiw	r28, 0x0b	; 11
    2012:	6c af       	std	Y+60, r22	; 0x3c
    2014:	7d af       	std	Y+61, r23	; 0x3d
    2016:	8e af       	std	Y+62, r24	; 0x3e
    2018:	9f af       	std	Y+63, r25	; 0x3f
    201a:	2b 97       	sbiw	r28, 0x0b	; 11
    201c:	2b 96       	adiw	r28, 0x0b	; 11
    201e:	8c ad       	ldd	r24, Y+60	; 0x3c
    2020:	9d ad       	ldd	r25, Y+61	; 0x3d
    2022:	ae ad       	ldd	r26, Y+62	; 0x3e
    2024:	bf ad       	ldd	r27, Y+63	; 0x3f
    2026:	2b 97       	sbiw	r28, 0x0b	; 11

00002028 <.Loc.23>:
    2028:	9c 01       	movw	r18, r24
    202a:	ad 01       	movw	r20, r26
    202c:	6b 8d       	ldd	r22, Y+27	; 0x1b
    202e:	7c 8d       	ldd	r23, Y+28	; 0x1c
    2030:	8d 8d       	ldd	r24, Y+29	; 0x1d
    2032:	9e 8d       	ldd	r25, Y+30	; 0x1e
    2034:	0e 94 4e 17 	call	0x2e9c	; 0x2e9c <__addsf3>
    2038:	2f 96       	adiw	r28, 0x0f	; 15
    203a:	6c af       	std	Y+60, r22	; 0x3c
    203c:	7d af       	std	Y+61, r23	; 0x3d
    203e:	8e af       	std	Y+62, r24	; 0x3e
    2040:	9f af       	std	Y+63, r25	; 0x3f
    2042:	2f 97       	sbiw	r28, 0x0f	; 15
    2044:	2f 96       	adiw	r28, 0x0f	; 15
    2046:	2c ad       	ldd	r18, Y+60	; 0x3c
    2048:	3d ad       	ldd	r19, Y+61	; 0x3d
    204a:	4e ad       	ldd	r20, Y+62	; 0x3e
    204c:	5f ad       	ldd	r21, Y+63	; 0x3f
    204e:	2f 97       	sbiw	r28, 0x0f	; 15
    2050:	2b a3       	std	Y+35, r18	; 0x23
    2052:	3c a3       	std	Y+36, r19	; 0x24
    2054:	4d a3       	std	Y+37, r20	; 0x25
    2056:	5e a3       	std	Y+38, r21	; 0x26

00002058 <.Loc.24>:
    2058:	89 85       	ldd	r24, Y+9	; 0x09
    205a:	9a 85       	ldd	r25, Y+10	; 0x0a
    205c:	dc 01       	movw	r26, r24
    205e:	18 96       	adiw	r26, 0x08	; 8
    2060:	2d 91       	ld	r18, X+
    2062:	3d 91       	ld	r19, X+
    2064:	4d 91       	ld	r20, X+
    2066:	5c 91       	ld	r21, X
    2068:	1b 97       	sbiw	r26, 0x0b	; 11
    206a:	2f a3       	std	Y+39, r18	; 0x27
    206c:	38 a7       	std	Y+40, r19	; 0x28
    206e:	49 a7       	std	Y+41, r20	; 0x29
    2070:	5a a7       	std	Y+42, r21	; 0x2a

00002072 <.Loc.25>:
    2072:	2d 81       	ldd	r18, Y+5	; 0x05
    2074:	3e 81       	ldd	r19, Y+6	; 0x06
    2076:	4f 81       	ldd	r20, Y+7	; 0x07
    2078:	58 85       	ldd	r21, Y+8	; 0x08
    207a:	6f a1       	ldd	r22, Y+39	; 0x27
    207c:	78 a5       	ldd	r23, Y+40	; 0x28
    207e:	89 a5       	ldd	r24, Y+41	; 0x29
    2080:	9a a5       	ldd	r25, Y+42	; 0x2a
    2082:	0e 94 17 19 	call	0x322e	; 0x322e <__mulsf3>
    2086:	63 96       	adiw	r28, 0x13	; 19
    2088:	6c af       	std	Y+60, r22	; 0x3c
    208a:	7d af       	std	Y+61, r23	; 0x3d
    208c:	8e af       	std	Y+62, r24	; 0x3e
    208e:	9f af       	std	Y+63, r25	; 0x3f
    2090:	63 97       	sbiw	r28, 0x13	; 19
    2092:	63 96       	adiw	r28, 0x13	; 19
    2094:	8c ad       	ldd	r24, Y+60	; 0x3c
    2096:	9d ad       	ldd	r25, Y+61	; 0x3d
    2098:	ae ad       	ldd	r26, Y+62	; 0x3e
    209a:	bf ad       	ldd	r27, Y+63	; 0x3f
    209c:	63 97       	sbiw	r28, 0x13	; 19

0000209e <.Loc.26>:
    209e:	9c 01       	movw	r18, r24
    20a0:	ad 01       	movw	r20, r26
    20a2:	6b a1       	ldd	r22, Y+35	; 0x23
    20a4:	7c a1       	ldd	r23, Y+36	; 0x24
    20a6:	8d a1       	ldd	r24, Y+37	; 0x25
    20a8:	9e a1       	ldd	r25, Y+38	; 0x26
    20aa:	0e 94 4e 17 	call	0x2e9c	; 0x2e9c <__addsf3>
    20ae:	67 96       	adiw	r28, 0x17	; 23
    20b0:	6c af       	std	Y+60, r22	; 0x3c
    20b2:	7d af       	std	Y+61, r23	; 0x3d
    20b4:	8e af       	std	Y+62, r24	; 0x3e
    20b6:	9f af       	std	Y+63, r25	; 0x3f
    20b8:	67 97       	sbiw	r28, 0x17	; 23
    20ba:	67 96       	adiw	r28, 0x17	; 23
    20bc:	8c ad       	ldd	r24, Y+60	; 0x3c
    20be:	9d ad       	ldd	r25, Y+61	; 0x3d
    20c0:	ae ad       	ldd	r26, Y+62	; 0x3e
    20c2:	bf ad       	ldd	r27, Y+63	; 0x3f
    20c4:	67 97       	sbiw	r28, 0x17	; 23

000020c6 <.Loc.27>:
    20c6:	29 85       	ldd	r18, Y+9	; 0x09
    20c8:	3a 85       	ldd	r19, Y+10	; 0x0a
    20ca:	f9 01       	movw	r30, r18
    20cc:	80 8f       	std	Z+24, r24	; 0x18
    20ce:	91 8f       	std	Z+25, r25	; 0x19
    20d0:	a2 8f       	std	Z+26, r26	; 0x1a
    20d2:	b3 8f       	std	Z+27, r27	; 0x1b

000020d4 <.Loc.28>:

    // Clamp output to min/max
    if (pid->output > pid->output_max) {
    20d4:	89 85       	ldd	r24, Y+9	; 0x09
    20d6:	9a 85       	ldd	r25, Y+10	; 0x0a
    20d8:	dc 01       	movw	r26, r24
    20da:	58 96       	adiw	r26, 0x18	; 24
    20dc:	2d 91       	ld	r18, X+
    20de:	3d 91       	ld	r19, X+
    20e0:	4d 91       	ld	r20, X+
    20e2:	5c 91       	ld	r21, X
    20e4:	5b 97       	sbiw	r26, 0x1b	; 27
    20e6:	2b a7       	std	Y+43, r18	; 0x2b
    20e8:	3c a7       	std	Y+44, r19	; 0x2c
    20ea:	4d a7       	std	Y+45, r20	; 0x2d
    20ec:	5e a7       	std	Y+46, r21	; 0x2e

000020ee <.Loc.29>:
    20ee:	89 85       	ldd	r24, Y+9	; 0x09
    20f0:	9a 85       	ldd	r25, Y+10	; 0x0a
    20f2:	fc 01       	movw	r30, r24
    20f4:	80 a1       	ldd	r24, Z+32	; 0x20
    20f6:	91 a1       	ldd	r25, Z+33	; 0x21
    20f8:	a2 a1       	ldd	r26, Z+34	; 0x22
    20fa:	b3 a1       	ldd	r27, Z+35	; 0x23

000020fc <.Loc.30>:
    20fc:	9c 01       	movw	r18, r24
    20fe:	ad 01       	movw	r20, r26
    2100:	6b a5       	ldd	r22, Y+43	; 0x2b
    2102:	7c a5       	ldd	r23, Y+44	; 0x2c
    2104:	8d a5       	ldd	r24, Y+45	; 0x2d
    2106:	9e a5       	ldd	r25, Y+46	; 0x2e
    2108:	0e 94 12 19 	call	0x3224	; 0x3224 <__gesf2>
    210c:	88 23       	and	r24, r24
    210e:	81 f0       	breq	.+32     	; 0x2130 <.L10>
    2110:	7c f0       	brlt	.+30     	; 0x2130 <.L10>

00002112 <.Loc.31>:
        pid->output = pid->output_max;
    2112:	89 85       	ldd	r24, Y+9	; 0x09
    2114:	9a 85       	ldd	r25, Y+10	; 0x0a
    2116:	fc 01       	movw	r30, r24
    2118:	80 a1       	ldd	r24, Z+32	; 0x20
    211a:	91 a1       	ldd	r25, Z+33	; 0x21
    211c:	a2 a1       	ldd	r26, Z+34	; 0x22
    211e:	b3 a1       	ldd	r27, Z+35	; 0x23

00002120 <.Loc.32>:
    2120:	29 85       	ldd	r18, Y+9	; 0x09
    2122:	3a 85       	ldd	r19, Y+10	; 0x0a
    2124:	f9 01       	movw	r30, r18
    2126:	80 8f       	std	Z+24, r24	; 0x18
    2128:	91 8f       	std	Z+25, r25	; 0x19
    212a:	a2 8f       	std	Z+26, r26	; 0x1a
    212c:	b3 8f       	std	Z+27, r27	; 0x1b
    212e:	2c c0       	rjmp	.+88     	; 0x2188 <.L5>

00002130 <.L10>:
    } else if (pid->output < pid->output_min) {
    2130:	89 85       	ldd	r24, Y+9	; 0x09
    2132:	9a 85       	ldd	r25, Y+10	; 0x0a
    2134:	dc 01       	movw	r26, r24
    2136:	58 96       	adiw	r26, 0x18	; 24
    2138:	2d 91       	ld	r18, X+
    213a:	3d 91       	ld	r19, X+
    213c:	4d 91       	ld	r20, X+
    213e:	5c 91       	ld	r21, X
    2140:	5b 97       	sbiw	r26, 0x1b	; 27
    2142:	2f a7       	std	Y+47, r18	; 0x2f
    2144:	38 ab       	std	Y+48, r19	; 0x30
    2146:	49 ab       	std	Y+49, r20	; 0x31
    2148:	5a ab       	std	Y+50, r21	; 0x32

0000214a <.Loc.34>:
    214a:	89 85       	ldd	r24, Y+9	; 0x09
    214c:	9a 85       	ldd	r25, Y+10	; 0x0a
    214e:	fc 01       	movw	r30, r24
    2150:	84 8d       	ldd	r24, Z+28	; 0x1c
    2152:	95 8d       	ldd	r25, Z+29	; 0x1d
    2154:	a6 8d       	ldd	r26, Z+30	; 0x1e
    2156:	b7 8d       	ldd	r27, Z+31	; 0x1f

00002158 <.Loc.35>:
    2158:	9c 01       	movw	r18, r24
    215a:	ad 01       	movw	r20, r26
    215c:	6f a5       	ldd	r22, Y+47	; 0x2f
    215e:	78 a9       	ldd	r23, Y+48	; 0x30
    2160:	89 a9       	ldd	r24, Y+49	; 0x31
    2162:	9a a9       	ldd	r25, Y+50	; 0x32
    2164:	0e 94 ba 17 	call	0x2f74	; 0x2f74 <__cmpsf2>
    2168:	88 23       	and	r24, r24
    216a:	74 f4       	brge	.+28     	; 0x2188 <.L5>

0000216c <.Loc.36>:
        pid->output = pid->output_min;
    216c:	89 85       	ldd	r24, Y+9	; 0x09
    216e:	9a 85       	ldd	r25, Y+10	; 0x0a
    2170:	fc 01       	movw	r30, r24
    2172:	84 8d       	ldd	r24, Z+28	; 0x1c
    2174:	95 8d       	ldd	r25, Z+29	; 0x1d
    2176:	a6 8d       	ldd	r26, Z+30	; 0x1e
    2178:	b7 8d       	ldd	r27, Z+31	; 0x1f

0000217a <.Loc.37>:
    217a:	29 85       	ldd	r18, Y+9	; 0x09
    217c:	3a 85       	ldd	r19, Y+10	; 0x0a
    217e:	f9 01       	movw	r30, r18
    2180:	80 8f       	std	Z+24, r24	; 0x18
    2182:	91 8f       	std	Z+25, r25	; 0x19
    2184:	a2 8f       	std	Z+26, r26	; 0x1a
    2186:	b3 8f       	std	Z+27, r27	; 0x1b

00002188 <.L5>:
    }

    pid->previous_error = error;
    2188:	29 85       	ldd	r18, Y+9	; 0x09
    218a:	3a 85       	ldd	r19, Y+10	; 0x0a
    218c:	89 81       	ldd	r24, Y+1	; 0x01
    218e:	9a 81       	ldd	r25, Y+2	; 0x02
    2190:	ab 81       	ldd	r26, Y+3	; 0x03
    2192:	bc 81       	ldd	r27, Y+4	; 0x04
    2194:	f9 01       	movw	r30, r18
    2196:	84 87       	std	Z+12, r24	; 0x0c
    2198:	95 87       	std	Z+13, r25	; 0x0d
    219a:	a6 87       	std	Z+14, r26	; 0x0e
    219c:	b7 87       	std	Z+15, r27	; 0x0f

0000219e <.Loc.39>:

    return pid->output;
    219e:	89 85       	ldd	r24, Y+9	; 0x09
    21a0:	9a 85       	ldd	r25, Y+10	; 0x0a
    21a2:	fc 01       	movw	r30, r24
    21a4:	80 8d       	ldd	r24, Z+24	; 0x18
    21a6:	91 8d       	ldd	r25, Z+25	; 0x19
    21a8:	a2 8d       	ldd	r26, Z+26	; 0x1a
    21aa:	b3 8d       	ldd	r27, Z+27	; 0x1b
    21ac:	8b ab       	std	Y+51, r24	; 0x33
    21ae:	9c ab       	std	Y+52, r25	; 0x34
    21b0:	ad ab       	std	Y+53, r26	; 0x35
    21b2:	be ab       	std	Y+54, r27	; 0x36

000021b4 <.Loc.40>:
}
    21b4:	6b a9       	ldd	r22, Y+51	; 0x33
    21b6:	7c a9       	ldd	r23, Y+52	; 0x34
    21b8:	8d a9       	ldd	r24, Y+53	; 0x35
    21ba:	9e a9       	ldd	r25, Y+54	; 0x36
    21bc:	ca 5a       	subi	r28, 0xAA	; 170
    21be:	df 4f       	sbci	r29, 0xFF	; 255
    21c0:	0f b6       	in	r0, 0x3f	; 63
    21c2:	f8 94       	cli
    21c4:	de bf       	out	0x3e, r29	; 62
    21c6:	0f be       	out	0x3f, r0	; 63
    21c8:	cd bf       	out	0x3d, r28	; 61
    21ca:	df 91       	pop	r29
    21cc:	cf 91       	pop	r28
    21ce:	08 95       	ret

000021d0 <init_ultrasonics>:
#include "ultrasone.h"
#include <avr/io.h>
#include <util/delay.h>

// Initialize all three ultrasonic sensors
void init_ultrasonics(void) {
    21d0:	cf 93       	push	r28
    21d2:	df 93       	push	r29
    21d4:	cd b7       	in	r28, 0x3d	; 61
    21d6:	de b7       	in	r29, 0x3e	; 62

000021d8 <.Loc.1>:
    // Sensor 1
    DDRH |= (1 << US1_TRIG_PIN);  // Set trigger pin as output
    21d8:	81 e0       	ldi	r24, 0x01	; 1
    21da:	91 e0       	ldi	r25, 0x01	; 1
    21dc:	fc 01       	movw	r30, r24
    21de:	20 81       	ld	r18, Z
    21e0:	81 e0       	ldi	r24, 0x01	; 1
    21e2:	91 e0       	ldi	r25, 0x01	; 1

000021e4 <.Loc.2>:
    21e4:	21 60       	ori	r18, 0x01	; 1
    21e6:	fc 01       	movw	r30, r24
    21e8:	20 83       	st	Z, r18

000021ea <.Loc.3>:
    DDRH &= ~(1 << US1_ECHO_PIN); // Set echo pin as input
    21ea:	81 e0       	ldi	r24, 0x01	; 1
    21ec:	91 e0       	ldi	r25, 0x01	; 1
    21ee:	fc 01       	movw	r30, r24
    21f0:	20 81       	ld	r18, Z

000021f2 <.Loc.4>:
    21f2:	81 e0       	ldi	r24, 0x01	; 1
    21f4:	91 e0       	ldi	r25, 0x01	; 1

000021f6 <.Loc.5>:
    21f6:	2d 7f       	andi	r18, 0xFD	; 253
    21f8:	fc 01       	movw	r30, r24
    21fa:	20 83       	st	Z, r18

000021fc <.Loc.6>:
    PORTH &= ~(1 << US1_TRIG_PIN);
    21fc:	82 e0       	ldi	r24, 0x02	; 2
    21fe:	91 e0       	ldi	r25, 0x01	; 1
    2200:	fc 01       	movw	r30, r24
    2202:	20 81       	ld	r18, Z

00002204 <.Loc.7>:
    2204:	82 e0       	ldi	r24, 0x02	; 2
    2206:	91 e0       	ldi	r25, 0x01	; 1

00002208 <.Loc.8>:
    2208:	2e 7f       	andi	r18, 0xFE	; 254
    220a:	fc 01       	movw	r30, r24
    220c:	20 83       	st	Z, r18

0000220e <.Loc.9>:

    // Sensor 2
    DDRJ |= (1 << US2_TRIG_PIN);  // Set trigger pin as output
    220e:	84 e0       	ldi	r24, 0x04	; 4
    2210:	91 e0       	ldi	r25, 0x01	; 1
    2212:	fc 01       	movw	r30, r24
    2214:	20 81       	ld	r18, Z
    2216:	84 e0       	ldi	r24, 0x04	; 4
    2218:	91 e0       	ldi	r25, 0x01	; 1

0000221a <.Loc.10>:
    221a:	22 60       	ori	r18, 0x02	; 2
    221c:	fc 01       	movw	r30, r24
    221e:	20 83       	st	Z, r18

00002220 <.Loc.11>:
    DDRJ &= ~(1 << US2_ECHO_PIN); // Set echo pin as input
    2220:	84 e0       	ldi	r24, 0x04	; 4
    2222:	91 e0       	ldi	r25, 0x01	; 1
    2224:	fc 01       	movw	r30, r24
    2226:	20 81       	ld	r18, Z

00002228 <.Loc.12>:
    2228:	84 e0       	ldi	r24, 0x04	; 4
    222a:	91 e0       	ldi	r25, 0x01	; 1

0000222c <.Loc.13>:
    222c:	2e 7f       	andi	r18, 0xFE	; 254
    222e:	fc 01       	movw	r30, r24
    2230:	20 83       	st	Z, r18

00002232 <.Loc.14>:
    PORTJ &= ~(1 << US2_TRIG_PIN);
    2232:	85 e0       	ldi	r24, 0x05	; 5
    2234:	91 e0       	ldi	r25, 0x01	; 1
    2236:	fc 01       	movw	r30, r24
    2238:	20 81       	ld	r18, Z

0000223a <.Loc.15>:
    223a:	85 e0       	ldi	r24, 0x05	; 5
    223c:	91 e0       	ldi	r25, 0x01	; 1

0000223e <.Loc.16>:
    223e:	2d 7f       	andi	r18, 0xFD	; 253
    2240:	fc 01       	movw	r30, r24
    2242:	20 83       	st	Z, r18

00002244 <.Loc.17>:

    // Sensor 3
    DDRH |= (1 << US3_TRIG_PIN);  // Set trigger pin as output
    2244:	81 e0       	ldi	r24, 0x01	; 1
    2246:	91 e0       	ldi	r25, 0x01	; 1
    2248:	fc 01       	movw	r30, r24
    224a:	20 81       	ld	r18, Z
    224c:	81 e0       	ldi	r24, 0x01	; 1
    224e:	91 e0       	ldi	r25, 0x01	; 1

00002250 <.Loc.18>:
    2250:	20 61       	ori	r18, 0x10	; 16
    2252:	fc 01       	movw	r30, r24
    2254:	20 83       	st	Z, r18

00002256 <.Loc.19>:
    DDRH &= ~(1 << US3_ECHO_PIN); // Set echo pin as input
    2256:	81 e0       	ldi	r24, 0x01	; 1
    2258:	91 e0       	ldi	r25, 0x01	; 1
    225a:	fc 01       	movw	r30, r24
    225c:	20 81       	ld	r18, Z

0000225e <.Loc.20>:
    225e:	81 e0       	ldi	r24, 0x01	; 1
    2260:	91 e0       	ldi	r25, 0x01	; 1

00002262 <.Loc.21>:
    2262:	2f 7d       	andi	r18, 0xDF	; 223
    2264:	fc 01       	movw	r30, r24
    2266:	20 83       	st	Z, r18

00002268 <.Loc.22>:
    PORTH &= ~(1 << US3_TRIG_PIN);
    2268:	82 e0       	ldi	r24, 0x02	; 2
    226a:	91 e0       	ldi	r25, 0x01	; 1
    226c:	fc 01       	movw	r30, r24
    226e:	20 81       	ld	r18, Z

00002270 <.Loc.23>:
    2270:	82 e0       	ldi	r24, 0x02	; 2
    2272:	91 e0       	ldi	r25, 0x01	; 1

00002274 <.Loc.24>:
    2274:	2f 7e       	andi	r18, 0xEF	; 239
    2276:	fc 01       	movw	r30, r24
    2278:	20 83       	st	Z, r18

0000227a <.Loc.25>:
/*
       // Sensor 4
    DDRD |= (1 << US4_TRIG_PIN);  // Set trigger pin as output
    DDRD &= ~(1 << US4_ECHO_PIN); // Set echo pin as input
    PORTD &= ~(1 << US4_TRIG_PIN);*/
}
    227a:	00 00       	nop
    227c:	df 91       	pop	r29
    227e:	cf 91       	pop	r28
    2280:	08 95       	ret

00002282 <measure_distance1>:

// Measure distance with sensor 1
float measure_distance1(void) {
    2282:	cf 93       	push	r28
    2284:	df 93       	push	r29
    2286:	cd b7       	in	r28, 0x3d	; 61
    2288:	de b7       	in	r29, 0x3e	; 62
    228a:	c6 56       	subi	r28, 0x66	; 102
    228c:	d1 09       	sbc	r29, r1
    228e:	0f b6       	in	r0, 0x3f	; 63
    2290:	f8 94       	cli
    2292:	de bf       	out	0x3e, r29	; 62
    2294:	0f be       	out	0x3f, r0	; 63
    2296:	cd bf       	out	0x3d, r28	; 61

00002298 <.Loc.27>:
    uint16_t duration;

    // Trigger pulse
    PORTH |= (1 << US1_TRIG_PIN);
    2298:	82 e0       	ldi	r24, 0x02	; 2
    229a:	91 e0       	ldi	r25, 0x01	; 1
    229c:	dc 01       	movw	r26, r24
    229e:	2c 91       	ld	r18, X
    22a0:	82 e0       	ldi	r24, 0x02	; 2
    22a2:	91 e0       	ldi	r25, 0x01	; 1

000022a4 <.Loc.28>:
    22a4:	21 60       	ori	r18, 0x01	; 1
    22a6:	fc 01       	movw	r30, r24
    22a8:	20 83       	st	Z, r18
    22aa:	80 e0       	ldi	r24, 0x00	; 0
    22ac:	90 e0       	ldi	r25, 0x00	; 0
    22ae:	a0 e2       	ldi	r26, 0x20	; 32
    22b0:	b1 e4       	ldi	r27, 0x41	; 65
    22b2:	8f 83       	std	Y+7, r24	; 0x07
    22b4:	98 87       	std	Y+8, r25	; 0x08
    22b6:	a9 87       	std	Y+9, r26	; 0x09
    22b8:	ba 87       	std	Y+10, r27	; 0x0a

000022ba <.LBB56>:
	__builtin_avr_delay_cycles(__ticks_dc);

#else
	uint8_t __ticks;
	double __tmp2 ;
	__tmp = ((F_CPU) / 3e6) * __us;
    22ba:	2b ea       	ldi	r18, 0xAB	; 171
    22bc:	3a ea       	ldi	r19, 0xAA	; 170
    22be:	4a ea       	ldi	r20, 0xAA	; 170
    22c0:	50 e4       	ldi	r21, 0x40	; 64
    22c2:	6f 81       	ldd	r22, Y+7	; 0x07
    22c4:	78 85       	ldd	r23, Y+8	; 0x08
    22c6:	89 85       	ldd	r24, Y+9	; 0x09
    22c8:	9a 85       	ldd	r25, Y+10	; 0x0a
    22ca:	0e 94 17 19 	call	0x322e	; 0x322e <__mulsf3>
    22ce:	6f ab       	std	Y+55, r22	; 0x37
    22d0:	78 af       	std	Y+56, r23	; 0x38
    22d2:	89 af       	std	Y+57, r24	; 0x39
    22d4:	9a af       	std	Y+58, r25	; 0x3a
    22d6:	2f a9       	ldd	r18, Y+55	; 0x37
    22d8:	38 ad       	ldd	r19, Y+56	; 0x38
    22da:	49 ad       	ldd	r20, Y+57	; 0x39
    22dc:	5a ad       	ldd	r21, Y+58	; 0x3a
    22de:	2b 87       	std	Y+11, r18	; 0x0b
    22e0:	3c 87       	std	Y+12, r19	; 0x0c
    22e2:	4d 87       	std	Y+13, r20	; 0x0d
    22e4:	5e 87       	std	Y+14, r21	; 0x0e

000022e6 <.Loc.30>:
	__tmp2 = ((F_CPU) / 4e6) * __us;
    22e6:	20 e0       	ldi	r18, 0x00	; 0
    22e8:	30 e0       	ldi	r19, 0x00	; 0
    22ea:	40 e8       	ldi	r20, 0x80	; 128
    22ec:	50 e4       	ldi	r21, 0x40	; 64
    22ee:	6f 81       	ldd	r22, Y+7	; 0x07
    22f0:	78 85       	ldd	r23, Y+8	; 0x08
    22f2:	89 85       	ldd	r24, Y+9	; 0x09
    22f4:	9a 85       	ldd	r25, Y+10	; 0x0a
    22f6:	0e 94 17 19 	call	0x322e	; 0x322e <__mulsf3>
    22fa:	6b af       	std	Y+59, r22	; 0x3b
    22fc:	7c af       	std	Y+60, r23	; 0x3c
    22fe:	8d af       	std	Y+61, r24	; 0x3d
    2300:	9e af       	std	Y+62, r25	; 0x3e
    2302:	8b ad       	ldd	r24, Y+59	; 0x3b
    2304:	9c ad       	ldd	r25, Y+60	; 0x3c
    2306:	ad ad       	ldd	r26, Y+61	; 0x3d
    2308:	be ad       	ldd	r27, Y+62	; 0x3e
    230a:	8f 87       	std	Y+15, r24	; 0x0f
    230c:	98 8b       	std	Y+16, r25	; 0x10
    230e:	a9 8b       	std	Y+17, r26	; 0x11
    2310:	ba 8b       	std	Y+18, r27	; 0x12

00002312 <.Loc.31>:
	if (__tmp < 1.0)
    2312:	20 e0       	ldi	r18, 0x00	; 0
    2314:	30 e0       	ldi	r19, 0x00	; 0
    2316:	40 e8       	ldi	r20, 0x80	; 128
    2318:	5f e3       	ldi	r21, 0x3F	; 63
    231a:	6b 85       	ldd	r22, Y+11	; 0x0b
    231c:	7c 85       	ldd	r23, Y+12	; 0x0c
    231e:	8d 85       	ldd	r24, Y+13	; 0x0d
    2320:	9e 85       	ldd	r25, Y+14	; 0x0e
    2322:	0e 94 ba 17 	call	0x2f74	; 0x2f74 <__cmpsf2>
    2326:	88 23       	and	r24, r24
    2328:	1c f4       	brge	.+6      	; 0x2330 <.L29>

0000232a <.Loc.32>:
		__ticks = 1;
    232a:	81 e0       	ldi	r24, 0x01	; 1
    232c:	8b 8b       	std	Y+19, r24	; 0x13
    232e:	fb c0       	rjmp	.+502    	; 0x2526 <.L5>

00002330 <.L29>:
	else if (__tmp2 > 65535)
    2330:	20 e0       	ldi	r18, 0x00	; 0
    2332:	3f ef       	ldi	r19, 0xFF	; 255
    2334:	4f e7       	ldi	r20, 0x7F	; 127
    2336:	57 e4       	ldi	r21, 0x47	; 71
    2338:	6f 85       	ldd	r22, Y+15	; 0x0f
    233a:	78 89       	ldd	r23, Y+16	; 0x10
    233c:	89 89       	ldd	r24, Y+17	; 0x11
    233e:	9a 89       	ldd	r25, Y+18	; 0x12
    2340:	0e 94 12 19 	call	0x3224	; 0x3224 <__gesf2>
    2344:	88 23       	and	r24, r24
    2346:	09 f0       	breq	.+2      	; 0x234a <L0^A>

00002348 <L0^A>:
    2348:	0c f4       	brge	.+2      	; 0x234c <.Loc.34>

0000234a <L0^A>:
    234a:	b2 c0       	rjmp	.+356    	; 0x24b0 <.L30>

0000234c <.Loc.34>:
	{
		_delay_ms(__us / 1000.0);
    234c:	20 e0       	ldi	r18, 0x00	; 0
    234e:	30 e0       	ldi	r19, 0x00	; 0
    2350:	4a e7       	ldi	r20, 0x7A	; 122
    2352:	54 e4       	ldi	r21, 0x44	; 68
    2354:	6f 81       	ldd	r22, Y+7	; 0x07
    2356:	78 85       	ldd	r23, Y+8	; 0x08
    2358:	89 85       	ldd	r24, Y+9	; 0x09
    235a:	9a 85       	ldd	r25, Y+10	; 0x0a
    235c:	0e 94 bf 17 	call	0x2f7e	; 0x2f7e <__divsf3>
    2360:	23 96       	adiw	r28, 0x03	; 3
    2362:	6c af       	std	Y+60, r22	; 0x3c
    2364:	7d af       	std	Y+61, r23	; 0x3d
    2366:	8e af       	std	Y+62, r24	; 0x3e
    2368:	9f af       	std	Y+63, r25	; 0x3f
    236a:	23 97       	sbiw	r28, 0x03	; 3
    236c:	23 96       	adiw	r28, 0x03	; 3
    236e:	8c ad       	ldd	r24, Y+60	; 0x3c
    2370:	9d ad       	ldd	r25, Y+61	; 0x3d
    2372:	ae ad       	ldd	r26, Y+62	; 0x3e
    2374:	bf ad       	ldd	r27, Y+63	; 0x3f
    2376:	23 97       	sbiw	r28, 0x03	; 3
    2378:	8c 8b       	std	Y+20, r24	; 0x14
    237a:	9d 8b       	std	Y+21, r25	; 0x15
    237c:	ae 8b       	std	Y+22, r26	; 0x16
    237e:	bf 8b       	std	Y+23, r27	; 0x17

00002380 <.LBB58>:
	__tmp = ((F_CPU) / 4e3) * __ms;
    2380:	20 e0       	ldi	r18, 0x00	; 0
    2382:	30 e0       	ldi	r19, 0x00	; 0
    2384:	4a e7       	ldi	r20, 0x7A	; 122
    2386:	55 e4       	ldi	r21, 0x45	; 69
    2388:	6c 89       	ldd	r22, Y+20	; 0x14
    238a:	7d 89       	ldd	r23, Y+21	; 0x15
    238c:	8e 89       	ldd	r24, Y+22	; 0x16
    238e:	9f 89       	ldd	r25, Y+23	; 0x17
    2390:	0e 94 17 19 	call	0x322e	; 0x322e <__mulsf3>
    2394:	27 96       	adiw	r28, 0x07	; 7
    2396:	6c af       	std	Y+60, r22	; 0x3c
    2398:	7d af       	std	Y+61, r23	; 0x3d
    239a:	8e af       	std	Y+62, r24	; 0x3e
    239c:	9f af       	std	Y+63, r25	; 0x3f
    239e:	27 97       	sbiw	r28, 0x07	; 7
    23a0:	27 96       	adiw	r28, 0x07	; 7
    23a2:	2c ad       	ldd	r18, Y+60	; 0x3c
    23a4:	3d ad       	ldd	r19, Y+61	; 0x3d
    23a6:	4e ad       	ldd	r20, Y+62	; 0x3e
    23a8:	5f ad       	ldd	r21, Y+63	; 0x3f
    23aa:	27 97       	sbiw	r28, 0x07	; 7
    23ac:	28 8f       	std	Y+24, r18	; 0x18
    23ae:	39 8f       	std	Y+25, r19	; 0x19
    23b0:	4a 8f       	std	Y+26, r20	; 0x1a
    23b2:	5b 8f       	std	Y+27, r21	; 0x1b

000023b4 <.Loc.36>:
	if (__tmp < 1.0)
    23b4:	20 e0       	ldi	r18, 0x00	; 0
    23b6:	30 e0       	ldi	r19, 0x00	; 0
    23b8:	40 e8       	ldi	r20, 0x80	; 128
    23ba:	5f e3       	ldi	r21, 0x3F	; 63
    23bc:	68 8d       	ldd	r22, Y+24	; 0x18
    23be:	79 8d       	ldd	r23, Y+25	; 0x19
    23c0:	8a 8d       	ldd	r24, Y+26	; 0x1a
    23c2:	9b 8d       	ldd	r25, Y+27	; 0x1b
    23c4:	0e 94 ba 17 	call	0x2f74	; 0x2f74 <__cmpsf2>
    23c8:	88 23       	and	r24, r24
    23ca:	2c f4       	brge	.+10     	; 0x23d6 <.L31>

000023cc <.Loc.37>:
		__ticks = 1;
    23cc:	81 e0       	ldi	r24, 0x01	; 1
    23ce:	90 e0       	ldi	r25, 0x00	; 0
    23d0:	9d 8f       	std	Y+29, r25	; 0x1d
    23d2:	8c 8f       	std	Y+28, r24	; 0x1c
    23d4:	62 c0       	rjmp	.+196    	; 0x249a <.L10>

000023d6 <.L31>:
	else if (__tmp > 65535)
    23d6:	20 e0       	ldi	r18, 0x00	; 0
    23d8:	3f ef       	ldi	r19, 0xFF	; 255
    23da:	4f e7       	ldi	r20, 0x7F	; 127
    23dc:	57 e4       	ldi	r21, 0x47	; 71
    23de:	68 8d       	ldd	r22, Y+24	; 0x18
    23e0:	79 8d       	ldd	r23, Y+25	; 0x19
    23e2:	8a 8d       	ldd	r24, Y+26	; 0x1a
    23e4:	9b 8d       	ldd	r25, Y+27	; 0x1b
    23e6:	0e 94 12 19 	call	0x3224	; 0x3224 <__gesf2>
    23ea:	88 23       	and	r24, r24
    23ec:	09 f0       	breq	.+2      	; 0x23f0 <L0^A>

000023ee <L0^A>:
    23ee:	0c f4       	brge	.+2      	; 0x23f2 <.Loc.39>

000023f0 <L0^A>:
    23f0:	42 c0       	rjmp	.+132    	; 0x2476 <.L32>

000023f2 <.Loc.39>:
		__ticks = (uint16_t) (__ms * 10.0);
    23f2:	20 e0       	ldi	r18, 0x00	; 0
    23f4:	30 e0       	ldi	r19, 0x00	; 0
    23f6:	40 e2       	ldi	r20, 0x20	; 32
    23f8:	51 e4       	ldi	r21, 0x41	; 65
    23fa:	6c 89       	ldd	r22, Y+20	; 0x14
    23fc:	7d 89       	ldd	r23, Y+21	; 0x15
    23fe:	8e 89       	ldd	r24, Y+22	; 0x16
    2400:	9f 89       	ldd	r25, Y+23	; 0x17
    2402:	0e 94 17 19 	call	0x322e	; 0x322e <__mulsf3>
    2406:	2b 96       	adiw	r28, 0x0b	; 11
    2408:	6c af       	std	Y+60, r22	; 0x3c
    240a:	7d af       	std	Y+61, r23	; 0x3d
    240c:	8e af       	std	Y+62, r24	; 0x3e
    240e:	9f af       	std	Y+63, r25	; 0x3f
    2410:	2b 97       	sbiw	r28, 0x0b	; 11
    2412:	2b 96       	adiw	r28, 0x0b	; 11
    2414:	8c ad       	ldd	r24, Y+60	; 0x3c
    2416:	9d ad       	ldd	r25, Y+61	; 0x3d
    2418:	ae ad       	ldd	r26, Y+62	; 0x3e
    241a:	bf ad       	ldd	r27, Y+63	; 0x3f
    241c:	2b 97       	sbiw	r28, 0x0b	; 11
    241e:	8f a7       	std	Y+47, r24	; 0x2f
    2420:	98 ab       	std	Y+48, r25	; 0x30
    2422:	a9 ab       	std	Y+49, r26	; 0x31
    2424:	ba ab       	std	Y+50, r27	; 0x32

00002426 <.Loc.40>:
    2426:	6f a5       	ldd	r22, Y+47	; 0x2f
    2428:	78 a9       	ldd	r23, Y+48	; 0x30
    242a:	89 a9       	ldd	r24, Y+49	; 0x31
    242c:	9a a9       	ldd	r25, Y+50	; 0x32
    242e:	0e 94 31 18 	call	0x3062	; 0x3062 <__fixunssfsi>
    2432:	2f 96       	adiw	r28, 0x0f	; 15
    2434:	6c af       	std	Y+60, r22	; 0x3c
    2436:	7d af       	std	Y+61, r23	; 0x3d
    2438:	8e af       	std	Y+62, r24	; 0x3e
    243a:	9f af       	std	Y+63, r25	; 0x3f
    243c:	2f 97       	sbiw	r28, 0x0f	; 15
    243e:	2d 96       	adiw	r28, 0x0d	; 13
    2440:	ae ad       	ldd	r26, Y+62	; 0x3e
    2442:	bf ad       	ldd	r27, Y+63	; 0x3f
    2444:	2d 97       	sbiw	r28, 0x0d	; 13
    2446:	bd 8f       	std	Y+29, r27	; 0x1d
    2448:	ac 8f       	std	Y+28, r26	; 0x1c

0000244a <.Loc.41>:
		while(__ticks)
    244a:	10 c0       	rjmp	.+32     	; 0x246c <.L13>

0000244c <.L14>:
    244c:	80 e9       	ldi	r24, 0x90	; 144
    244e:	91 e0       	ldi	r25, 0x01	; 1
    2450:	9f 8f       	std	Y+31, r25	; 0x1f
    2452:	8e 8f       	std	Y+30, r24	; 0x1e

00002454 <.LBB60>:
    2454:	8e 8d       	ldd	r24, Y+30	; 0x1e
    2456:	9f 8d       	ldd	r25, Y+31	; 0x1f

00002458 <.L1^B1>:
    2458:	01 97       	sbiw	r24, 0x01	; 1
    245a:	f1 f7       	brne	.-4      	; 0x2458 <.L1^B1>
    245c:	9f 8f       	std	Y+31, r25	; 0x1f
    245e:	8e 8f       	std	Y+30, r24	; 0x1e

00002460 <.Loc.43>:
	...

00002462 <.LBE60>:
			__ticks --;
    2462:	8c 8d       	ldd	r24, Y+28	; 0x1c
    2464:	9d 8d       	ldd	r25, Y+29	; 0x1d
    2466:	01 97       	sbiw	r24, 0x01	; 1
    2468:	9d 8f       	std	Y+29, r25	; 0x1d
    246a:	8c 8f       	std	Y+28, r24	; 0x1c

0000246c <.L13>:
		while(__ticks)
    246c:	8c 8d       	ldd	r24, Y+28	; 0x1c
    246e:	9d 8d       	ldd	r25, Y+29	; 0x1d
    2470:	00 97       	sbiw	r24, 0x00	; 0
    2472:	61 f7       	brne	.-40     	; 0x244c <.L14>

00002474 <.Loc.46>:
		return;
    2474:	58 c0       	rjmp	.+176    	; 0x2526 <.L5>

00002476 <.L32>:
		__ticks = (uint16_t)__tmp;
    2476:	68 8d       	ldd	r22, Y+24	; 0x18
    2478:	79 8d       	ldd	r23, Y+25	; 0x19
    247a:	8a 8d       	ldd	r24, Y+26	; 0x1a
    247c:	9b 8d       	ldd	r25, Y+27	; 0x1b
    247e:	0e 94 31 18 	call	0x3062	; 0x3062 <__fixunssfsi>
    2482:	63 96       	adiw	r28, 0x13	; 19
    2484:	6c af       	std	Y+60, r22	; 0x3c
    2486:	7d af       	std	Y+61, r23	; 0x3d
    2488:	8e af       	std	Y+62, r24	; 0x3e
    248a:	9f af       	std	Y+63, r25	; 0x3f
    248c:	63 97       	sbiw	r28, 0x13	; 19
    248e:	61 96       	adiw	r28, 0x11	; 17
    2490:	ee ad       	ldd	r30, Y+62	; 0x3e
    2492:	ff ad       	ldd	r31, Y+63	; 0x3f
    2494:	61 97       	sbiw	r28, 0x11	; 17
    2496:	fd 8f       	std	Y+29, r31	; 0x1d
    2498:	ec 8f       	std	Y+28, r30	; 0x1c

0000249a <.L10>:
    249a:	8c 8d       	ldd	r24, Y+28	; 0x1c
    249c:	9d 8d       	ldd	r25, Y+29	; 0x1d
    249e:	99 a3       	std	Y+33, r25	; 0x21
    24a0:	88 a3       	std	Y+32, r24	; 0x20

000024a2 <.LBB62>:
    24a2:	88 a1       	ldd	r24, Y+32	; 0x20
    24a4:	99 a1       	ldd	r25, Y+33	; 0x21

000024a6 <.L1^B2>:
    24a6:	01 97       	sbiw	r24, 0x01	; 1
    24a8:	f1 f7       	brne	.-4      	; 0x24a6 <.L1^B2>
    24aa:	99 a3       	std	Y+33, r25	; 0x21
    24ac:	88 a3       	std	Y+32, r24	; 0x20

000024ae <.Loc.49>:
		"brne 1b"
		: "=w" (__count)
		: "0" (__count)
	);
#endif /* __AVR_TINY__ */
}
    24ae:	3b c0       	rjmp	.+118    	; 0x2526 <.L5>

000024b0 <.L30>:
	}
	else if (__tmp > 255)
    24b0:	20 e0       	ldi	r18, 0x00	; 0
    24b2:	30 e0       	ldi	r19, 0x00	; 0
    24b4:	4f e7       	ldi	r20, 0x7F	; 127
    24b6:	53 e4       	ldi	r21, 0x43	; 67
    24b8:	6b 85       	ldd	r22, Y+11	; 0x0b
    24ba:	7c 85       	ldd	r23, Y+12	; 0x0c
    24bc:	8d 85       	ldd	r24, Y+13	; 0x0d
    24be:	9e 85       	ldd	r25, Y+14	; 0x0e
    24c0:	0e 94 12 19 	call	0x3224	; 0x3224 <__gesf2>
    24c4:	88 23       	and	r24, r24
    24c6:	f9 f0       	breq	.+62     	; 0x2506 <.L33>
    24c8:	f4 f0       	brlt	.+60     	; 0x2506 <.L33>

000024ca <.LBB64>:
	{
		uint16_t __ticks=(uint16_t)__tmp2;
    24ca:	6f 85       	ldd	r22, Y+15	; 0x0f
    24cc:	78 89       	ldd	r23, Y+16	; 0x10
    24ce:	89 89       	ldd	r24, Y+17	; 0x11
    24d0:	9a 89       	ldd	r25, Y+18	; 0x12
    24d2:	0e 94 31 18 	call	0x3062	; 0x3062 <__fixunssfsi>
    24d6:	67 96       	adiw	r28, 0x17	; 23
    24d8:	6c af       	std	Y+60, r22	; 0x3c
    24da:	7d af       	std	Y+61, r23	; 0x3d
    24dc:	8e af       	std	Y+62, r24	; 0x3e
    24de:	9f af       	std	Y+63, r25	; 0x3f
    24e0:	67 97       	sbiw	r28, 0x17	; 23
    24e2:	65 96       	adiw	r28, 0x15	; 21
    24e4:	2e ad       	ldd	r18, Y+62	; 0x3e
    24e6:	3f ad       	ldd	r19, Y+63	; 0x3f
    24e8:	65 97       	sbiw	r28, 0x15	; 21
    24ea:	3b a3       	std	Y+35, r19	; 0x23
    24ec:	2a a3       	std	Y+34, r18	; 0x22
    24ee:	8a a1       	ldd	r24, Y+34	; 0x22
    24f0:	9b a1       	ldd	r25, Y+35	; 0x23
    24f2:	9d a3       	std	Y+37, r25	; 0x25
    24f4:	8c a3       	std	Y+36, r24	; 0x24

000024f6 <.LBB65>:
	__asm__ volatile (
    24f6:	8c a1       	ldd	r24, Y+36	; 0x24
    24f8:	9d a1       	ldd	r25, Y+37	; 0x25

000024fa <.L1^B3>:
    24fa:	01 97       	sbiw	r24, 0x01	; 1
    24fc:	f1 f7       	brne	.-4      	; 0x24fa <.L1^B3>
    24fe:	9d a3       	std	Y+37, r25	; 0x25
    2500:	8c a3       	std	Y+36, r24	; 0x24

00002502 <.Loc.53>:
	...

00002504 <.LBE65>:
		_delay_loop_2(__ticks);
		return;
    2504:	17 c0       	rjmp	.+46     	; 0x2534 <.L18>

00002506 <.L33>:
	}
	else
		__ticks = (uint8_t)__tmp;
    2506:	6b 85       	ldd	r22, Y+11	; 0x0b
    2508:	7c 85       	ldd	r23, Y+12	; 0x0c
    250a:	8d 85       	ldd	r24, Y+13	; 0x0d
    250c:	9e 85       	ldd	r25, Y+14	; 0x0e
    250e:	0e 94 31 18 	call	0x3062	; 0x3062 <__fixunssfsi>
    2512:	6b 96       	adiw	r28, 0x1b	; 27
    2514:	6c af       	std	Y+60, r22	; 0x3c
    2516:	7d af       	std	Y+61, r23	; 0x3d
    2518:	8e af       	std	Y+62, r24	; 0x3e
    251a:	9f af       	std	Y+63, r25	; 0x3f
    251c:	6b 97       	sbiw	r28, 0x1b	; 27
    251e:	68 96       	adiw	r28, 0x18	; 24
    2520:	3f ad       	ldd	r19, Y+63	; 0x3f
    2522:	68 97       	sbiw	r28, 0x18	; 24
    2524:	3b 8b       	std	Y+19, r19	; 0x13

00002526 <.L5>:
    2526:	8b 89       	ldd	r24, Y+19	; 0x13
    2528:	8e a3       	std	Y+38, r24	; 0x26

0000252a <.LBB67>:
	__asm__ volatile (
    252a:	8e a1       	ldd	r24, Y+38	; 0x26

0000252c <.L1^B4>:
    252c:	8a 95       	dec	r24
    252e:	f1 f7       	brne	.-4      	; 0x252c <.L1^B4>
    2530:	8e a3       	std	Y+38, r24	; 0x26

00002532 <.Loc.57>:
	...

00002534 <.L18>:
    _delay_us(10);
    PORTH &= ~(1 << US1_TRIG_PIN);
    2534:	82 e0       	ldi	r24, 0x02	; 2
    2536:	91 e0       	ldi	r25, 0x01	; 1
    2538:	dc 01       	movw	r26, r24
    253a:	2c 91       	ld	r18, X

0000253c <.Loc.59>:
    253c:	82 e0       	ldi	r24, 0x02	; 2
    253e:	91 e0       	ldi	r25, 0x01	; 1

00002540 <.Loc.60>:
    2540:	2e 7f       	andi	r18, 0xFE	; 254
    2542:	fc 01       	movw	r30, r24
    2544:	20 83       	st	Z, r18

00002546 <.Loc.61>:
	...

00002548 <.L19>:

    // Wait for echo pin to go high
    while (!(PINH & (1 << US1_ECHO_PIN)));
    2548:	80 e0       	ldi	r24, 0x00	; 0
    254a:	91 e0       	ldi	r25, 0x01	; 1
    254c:	dc 01       	movw	r26, r24
    254e:	8c 91       	ld	r24, X

00002550 <.Loc.63>:
    2550:	88 2f       	mov	r24, r24
    2552:	90 e0       	ldi	r25, 0x00	; 0
    2554:	82 70       	andi	r24, 0x02	; 2
    2556:	99 27       	eor	r25, r25

00002558 <.Loc.64>:
    2558:	00 97       	sbiw	r24, 0x00	; 0
    255a:	b1 f3       	breq	.-20     	; 0x2548 <.L19>

0000255c <.Loc.65>:

    // Start timer
    TCNT1 = 0;
    255c:	84 e8       	ldi	r24, 0x84	; 132
    255e:	90 e0       	ldi	r25, 0x00	; 0

00002560 <.Loc.66>:
    2560:	fc 01       	movw	r30, r24
    2562:	11 82       	std	Z+1, r1	; 0x01
    2564:	10 82       	st	Z, r1

00002566 <.Loc.67>:
    TCCR1B |= (1 << CS11); // Prescaler of 8
    2566:	81 e8       	ldi	r24, 0x81	; 129
    2568:	90 e0       	ldi	r25, 0x00	; 0
    256a:	dc 01       	movw	r26, r24
    256c:	2c 91       	ld	r18, X
    256e:	81 e8       	ldi	r24, 0x81	; 129
    2570:	90 e0       	ldi	r25, 0x00	; 0

00002572 <.Loc.68>:
    2572:	22 60       	ori	r18, 0x02	; 2
    2574:	fc 01       	movw	r30, r24
    2576:	20 83       	st	Z, r18

00002578 <.Loc.69>:

    // Wait for echo pin to go low
    while (PINH & (1 << US1_ECHO_PIN)) {
    2578:	0b c0       	rjmp	.+22     	; 0x2590 <.L20>

0000257a <.L22>:
        if (TCNT1 > 60000) {
    257a:	84 e8       	ldi	r24, 0x84	; 132
    257c:	90 e0       	ldi	r25, 0x00	; 0
    257e:	dc 01       	movw	r26, r24
    2580:	8d 91       	ld	r24, X+
    2582:	9c 91       	ld	r25, X
    2584:	11 97       	sbiw	r26, 0x01	; 1

00002586 <.Loc.71>:
    2586:	80 36       	cpi	r24, 0x60	; 96
    2588:	ba ee       	ldi	r27, 0xEA	; 234
    258a:	9b 07       	cpc	r25, r27
    258c:	09 f0       	breq	.+2      	; 0x2590 <.L20>

0000258e <L0^A>:
    258e:	58 f4       	brcc	.+22     	; 0x25a6 <.L34>

00002590 <.L20>:
    while (PINH & (1 << US1_ECHO_PIN)) {
    2590:	80 e0       	ldi	r24, 0x00	; 0
    2592:	91 e0       	ldi	r25, 0x01	; 1
    2594:	fc 01       	movw	r30, r24
    2596:	80 81       	ld	r24, Z

00002598 <.Loc.73>:
    2598:	88 2f       	mov	r24, r24
    259a:	90 e0       	ldi	r25, 0x00	; 0
    259c:	82 70       	andi	r24, 0x02	; 2
    259e:	99 27       	eor	r25, r25

000025a0 <.Loc.74>:
    25a0:	00 97       	sbiw	r24, 0x00	; 0
    25a2:	59 f7       	brne	.-42     	; 0x257a <.L22>
    25a4:	01 c0       	rjmp	.+2      	; 0x25a8 <.L21>

000025a6 <.L34>:
	...

000025a8 <.L21>:
            break;
        }
    }

    // Stop timer
    TCCR1B &= ~(1 << CS11);
    25a8:	81 e8       	ldi	r24, 0x81	; 129
    25aa:	90 e0       	ldi	r25, 0x00	; 0
    25ac:	dc 01       	movw	r26, r24
    25ae:	2c 91       	ld	r18, X

000025b0 <.Loc.77>:
    25b0:	81 e8       	ldi	r24, 0x81	; 129
    25b2:	90 e0       	ldi	r25, 0x00	; 0

000025b4 <.Loc.78>:
    25b4:	2d 7f       	andi	r18, 0xFD	; 253
    25b6:	fc 01       	movw	r30, r24
    25b8:	20 83       	st	Z, r18

000025ba <.Loc.79>:

    // Read timer value
    duration = TCNT1;
    25ba:	84 e8       	ldi	r24, 0x84	; 132
    25bc:	90 e0       	ldi	r25, 0x00	; 0

000025be <.Loc.80>:
    25be:	dc 01       	movw	r26, r24
    25c0:	8d 91       	ld	r24, X+
    25c2:	9c 91       	ld	r25, X
    25c4:	9a 83       	std	Y+2, r25	; 0x02
    25c6:	89 83       	std	Y+1, r24	; 0x01

000025c8 <.Loc.81>:

    // Convert duration to distance in cm
    float distance = duration / 58.0 / 2.0;
    25c8:	89 81       	ldd	r24, Y+1	; 0x01
    25ca:	9a 81       	ldd	r25, Y+2	; 0x02
    25cc:	9c 01       	movw	r18, r24
    25ce:	40 e0       	ldi	r20, 0x00	; 0
    25d0:	50 e0       	ldi	r21, 0x00	; 0
    25d2:	6f 96       	adiw	r28, 0x1f	; 31
    25d4:	2c af       	std	Y+60, r18	; 0x3c
    25d6:	3d af       	std	Y+61, r19	; 0x3d
    25d8:	4e af       	std	Y+62, r20	; 0x3e
    25da:	5f af       	std	Y+63, r21	; 0x3f
    25dc:	6f 97       	sbiw	r28, 0x1f	; 31
    25de:	6f 96       	adiw	r28, 0x1f	; 31
    25e0:	6c ad       	ldd	r22, Y+60	; 0x3c
    25e2:	7d ad       	ldd	r23, Y+61	; 0x3d
    25e4:	8e ad       	ldd	r24, Y+62	; 0x3e
    25e6:	9f ad       	ldd	r25, Y+63	; 0x3f
    25e8:	6f 97       	sbiw	r28, 0x1f	; 31
    25ea:	0e 94 60 18 	call	0x30c0	; 0x30c0 <__floatunsisf>
    25ee:	6f a3       	std	Y+39, r22	; 0x27
    25f0:	78 a7       	std	Y+40, r23	; 0x28
    25f2:	89 a7       	std	Y+41, r24	; 0x29
    25f4:	9a a7       	std	Y+42, r25	; 0x2a
    25f6:	20 e0       	ldi	r18, 0x00	; 0
    25f8:	30 e0       	ldi	r19, 0x00	; 0
    25fa:	48 e6       	ldi	r20, 0x68	; 104
    25fc:	52 e4       	ldi	r21, 0x42	; 66
    25fe:	6f a1       	ldd	r22, Y+39	; 0x27
    2600:	78 a5       	ldd	r23, Y+40	; 0x28
    2602:	89 a5       	ldd	r24, Y+41	; 0x29
    2604:	9a a5       	ldd	r25, Y+42	; 0x2a
    2606:	0e 94 bf 17 	call	0x2f7e	; 0x2f7e <__divsf3>
    260a:	a3 96       	adiw	r28, 0x23	; 35
    260c:	6c af       	std	Y+60, r22	; 0x3c
    260e:	7d af       	std	Y+61, r23	; 0x3d
    2610:	8e af       	std	Y+62, r24	; 0x3e
    2612:	9f af       	std	Y+63, r25	; 0x3f
    2614:	a3 97       	sbiw	r28, 0x23	; 35
    2616:	a3 96       	adiw	r28, 0x23	; 35
    2618:	8c ad       	ldd	r24, Y+60	; 0x3c
    261a:	9d ad       	ldd	r25, Y+61	; 0x3d
    261c:	ae ad       	ldd	r26, Y+62	; 0x3e
    261e:	bf ad       	ldd	r27, Y+63	; 0x3f
    2620:	a3 97       	sbiw	r28, 0x23	; 35
    2622:	8b a7       	std	Y+43, r24	; 0x2b
    2624:	9c a7       	std	Y+44, r25	; 0x2c
    2626:	ad a7       	std	Y+45, r26	; 0x2d
    2628:	be a7       	std	Y+46, r27	; 0x2e

0000262a <.Loc.82>:
    262a:	20 e0       	ldi	r18, 0x00	; 0
    262c:	30 e0       	ldi	r19, 0x00	; 0
    262e:	40 e0       	ldi	r20, 0x00	; 0
    2630:	50 e4       	ldi	r21, 0x40	; 64
    2632:	6b a5       	ldd	r22, Y+43	; 0x2b
    2634:	7c a5       	ldd	r23, Y+44	; 0x2c
    2636:	8d a5       	ldd	r24, Y+45	; 0x2d
    2638:	9e a5       	ldd	r25, Y+46	; 0x2e
    263a:	0e 94 bf 17 	call	0x2f7e	; 0x2f7e <__divsf3>
    263e:	a7 96       	adiw	r28, 0x27	; 39
    2640:	6c af       	std	Y+60, r22	; 0x3c
    2642:	7d af       	std	Y+61, r23	; 0x3d
    2644:	8e af       	std	Y+62, r24	; 0x3e
    2646:	9f af       	std	Y+63, r25	; 0x3f
    2648:	a7 97       	sbiw	r28, 0x27	; 39
    264a:	a7 96       	adiw	r28, 0x27	; 39
    264c:	2c ad       	ldd	r18, Y+60	; 0x3c
    264e:	3d ad       	ldd	r19, Y+61	; 0x3d
    2650:	4e ad       	ldd	r20, Y+62	; 0x3e
    2652:	5f ad       	ldd	r21, Y+63	; 0x3f
    2654:	a7 97       	sbiw	r28, 0x27	; 39
    2656:	2b 83       	std	Y+3, r18	; 0x03
    2658:	3c 83       	std	Y+4, r19	; 0x04
    265a:	4d 83       	std	Y+5, r20	; 0x05
    265c:	5e 83       	std	Y+6, r21	; 0x06

0000265e <.Loc.83>:

    return distance;
    265e:	8b 81       	ldd	r24, Y+3	; 0x03
    2660:	9c 81       	ldd	r25, Y+4	; 0x04
    2662:	ad 81       	ldd	r26, Y+5	; 0x05
    2664:	be 81       	ldd	r27, Y+6	; 0x06
    2666:	8b ab       	std	Y+51, r24	; 0x33
    2668:	9c ab       	std	Y+52, r25	; 0x34
    266a:	ad ab       	std	Y+53, r26	; 0x35
    266c:	be ab       	std	Y+54, r27	; 0x36

0000266e <.Loc.84>:
}
    266e:	6b a9       	ldd	r22, Y+51	; 0x33
    2670:	7c a9       	ldd	r23, Y+52	; 0x34
    2672:	8d a9       	ldd	r24, Y+53	; 0x35
    2674:	9e a9       	ldd	r25, Y+54	; 0x36
    2676:	ca 59       	subi	r28, 0x9A	; 154
    2678:	df 4f       	sbci	r29, 0xFF	; 255
    267a:	0f b6       	in	r0, 0x3f	; 63
    267c:	f8 94       	cli
    267e:	de bf       	out	0x3e, r29	; 62
    2680:	0f be       	out	0x3f, r0	; 63
    2682:	cd bf       	out	0x3d, r28	; 61
    2684:	df 91       	pop	r29
    2686:	cf 91       	pop	r28
    2688:	08 95       	ret

0000268a <measure_distance2>:

// Measure distance with sensor 2
float measure_distance2(void) {
    268a:	cf 93       	push	r28
    268c:	df 93       	push	r29
    268e:	cd b7       	in	r28, 0x3d	; 61
    2690:	de b7       	in	r29, 0x3e	; 62
    2692:	c6 56       	subi	r28, 0x66	; 102
    2694:	d1 09       	sbc	r29, r1
    2696:	0f b6       	in	r0, 0x3f	; 63
    2698:	f8 94       	cli
    269a:	de bf       	out	0x3e, r29	; 62
    269c:	0f be       	out	0x3f, r0	; 63
    269e:	cd bf       	out	0x3d, r28	; 61

000026a0 <.Loc.86>:
    uint16_t duration;

    // Trigger pulse
    PORTJ |= (1 << US2_TRIG_PIN);
    26a0:	85 e0       	ldi	r24, 0x05	; 5
    26a2:	91 e0       	ldi	r25, 0x01	; 1
    26a4:	dc 01       	movw	r26, r24
    26a6:	2c 91       	ld	r18, X
    26a8:	85 e0       	ldi	r24, 0x05	; 5
    26aa:	91 e0       	ldi	r25, 0x01	; 1

000026ac <.Loc.87>:
    26ac:	22 60       	ori	r18, 0x02	; 2
    26ae:	fc 01       	movw	r30, r24
    26b0:	20 83       	st	Z, r18
    26b2:	80 e0       	ldi	r24, 0x00	; 0
    26b4:	90 e0       	ldi	r25, 0x00	; 0
    26b6:	a0 e2       	ldi	r26, 0x20	; 32
    26b8:	b1 e4       	ldi	r27, 0x41	; 65
    26ba:	8f 83       	std	Y+7, r24	; 0x07
    26bc:	98 87       	std	Y+8, r25	; 0x08
    26be:	a9 87       	std	Y+9, r26	; 0x09
    26c0:	ba 87       	std	Y+10, r27	; 0x0a

000026c2 <.LBB69>:
	__tmp = ((F_CPU) / 3e6) * __us;
    26c2:	2b ea       	ldi	r18, 0xAB	; 171
    26c4:	3a ea       	ldi	r19, 0xAA	; 170
    26c6:	4a ea       	ldi	r20, 0xAA	; 170
    26c8:	50 e4       	ldi	r21, 0x40	; 64
    26ca:	6f 81       	ldd	r22, Y+7	; 0x07
    26cc:	78 85       	ldd	r23, Y+8	; 0x08
    26ce:	89 85       	ldd	r24, Y+9	; 0x09
    26d0:	9a 85       	ldd	r25, Y+10	; 0x0a
    26d2:	0e 94 17 19 	call	0x322e	; 0x322e <__mulsf3>
    26d6:	6f ab       	std	Y+55, r22	; 0x37
    26d8:	78 af       	std	Y+56, r23	; 0x38
    26da:	89 af       	std	Y+57, r24	; 0x39
    26dc:	9a af       	std	Y+58, r25	; 0x3a
    26de:	2f a9       	ldd	r18, Y+55	; 0x37
    26e0:	38 ad       	ldd	r19, Y+56	; 0x38
    26e2:	49 ad       	ldd	r20, Y+57	; 0x39
    26e4:	5a ad       	ldd	r21, Y+58	; 0x3a
    26e6:	2b 87       	std	Y+11, r18	; 0x0b
    26e8:	3c 87       	std	Y+12, r19	; 0x0c
    26ea:	4d 87       	std	Y+13, r20	; 0x0d
    26ec:	5e 87       	std	Y+14, r21	; 0x0e

000026ee <.Loc.89>:
	__tmp2 = ((F_CPU) / 4e6) * __us;
    26ee:	20 e0       	ldi	r18, 0x00	; 0
    26f0:	30 e0       	ldi	r19, 0x00	; 0
    26f2:	40 e8       	ldi	r20, 0x80	; 128
    26f4:	50 e4       	ldi	r21, 0x40	; 64
    26f6:	6f 81       	ldd	r22, Y+7	; 0x07
    26f8:	78 85       	ldd	r23, Y+8	; 0x08
    26fa:	89 85       	ldd	r24, Y+9	; 0x09
    26fc:	9a 85       	ldd	r25, Y+10	; 0x0a
    26fe:	0e 94 17 19 	call	0x322e	; 0x322e <__mulsf3>
    2702:	6b af       	std	Y+59, r22	; 0x3b
    2704:	7c af       	std	Y+60, r23	; 0x3c
    2706:	8d af       	std	Y+61, r24	; 0x3d
    2708:	9e af       	std	Y+62, r25	; 0x3e
    270a:	8b ad       	ldd	r24, Y+59	; 0x3b
    270c:	9c ad       	ldd	r25, Y+60	; 0x3c
    270e:	ad ad       	ldd	r26, Y+61	; 0x3d
    2710:	be ad       	ldd	r27, Y+62	; 0x3e
    2712:	8f 87       	std	Y+15, r24	; 0x0f
    2714:	98 8b       	std	Y+16, r25	; 0x10
    2716:	a9 8b       	std	Y+17, r26	; 0x11
    2718:	ba 8b       	std	Y+18, r27	; 0x12

0000271a <.Loc.90>:
	if (__tmp < 1.0)
    271a:	20 e0       	ldi	r18, 0x00	; 0
    271c:	30 e0       	ldi	r19, 0x00	; 0
    271e:	40 e8       	ldi	r20, 0x80	; 128
    2720:	5f e3       	ldi	r21, 0x3F	; 63
    2722:	6b 85       	ldd	r22, Y+11	; 0x0b
    2724:	7c 85       	ldd	r23, Y+12	; 0x0c
    2726:	8d 85       	ldd	r24, Y+13	; 0x0d
    2728:	9e 85       	ldd	r25, Y+14	; 0x0e
    272a:	0e 94 ba 17 	call	0x2f74	; 0x2f74 <__cmpsf2>
    272e:	88 23       	and	r24, r24
    2730:	1c f4       	brge	.+6      	; 0x2738 <.L62>

00002732 <.Loc.91>:
		__ticks = 1;
    2732:	81 e0       	ldi	r24, 0x01	; 1
    2734:	8b 8b       	std	Y+19, r24	; 0x13
    2736:	fb c0       	rjmp	.+502    	; 0x292e <.L38>

00002738 <.L62>:
	else if (__tmp2 > 65535)
    2738:	20 e0       	ldi	r18, 0x00	; 0
    273a:	3f ef       	ldi	r19, 0xFF	; 255
    273c:	4f e7       	ldi	r20, 0x7F	; 127
    273e:	57 e4       	ldi	r21, 0x47	; 71
    2740:	6f 85       	ldd	r22, Y+15	; 0x0f
    2742:	78 89       	ldd	r23, Y+16	; 0x10
    2744:	89 89       	ldd	r24, Y+17	; 0x11
    2746:	9a 89       	ldd	r25, Y+18	; 0x12
    2748:	0e 94 12 19 	call	0x3224	; 0x3224 <__gesf2>
    274c:	88 23       	and	r24, r24
    274e:	09 f0       	breq	.+2      	; 0x2752 <L0^A>

00002750 <L0^A>:
    2750:	0c f4       	brge	.+2      	; 0x2754 <.Loc.93>

00002752 <L0^A>:
    2752:	b2 c0       	rjmp	.+356    	; 0x28b8 <.L63>

00002754 <.Loc.93>:
		_delay_ms(__us / 1000.0);
    2754:	20 e0       	ldi	r18, 0x00	; 0
    2756:	30 e0       	ldi	r19, 0x00	; 0
    2758:	4a e7       	ldi	r20, 0x7A	; 122
    275a:	54 e4       	ldi	r21, 0x44	; 68
    275c:	6f 81       	ldd	r22, Y+7	; 0x07
    275e:	78 85       	ldd	r23, Y+8	; 0x08
    2760:	89 85       	ldd	r24, Y+9	; 0x09
    2762:	9a 85       	ldd	r25, Y+10	; 0x0a
    2764:	0e 94 bf 17 	call	0x2f7e	; 0x2f7e <__divsf3>
    2768:	23 96       	adiw	r28, 0x03	; 3
    276a:	6c af       	std	Y+60, r22	; 0x3c
    276c:	7d af       	std	Y+61, r23	; 0x3d
    276e:	8e af       	std	Y+62, r24	; 0x3e
    2770:	9f af       	std	Y+63, r25	; 0x3f
    2772:	23 97       	sbiw	r28, 0x03	; 3
    2774:	23 96       	adiw	r28, 0x03	; 3
    2776:	8c ad       	ldd	r24, Y+60	; 0x3c
    2778:	9d ad       	ldd	r25, Y+61	; 0x3d
    277a:	ae ad       	ldd	r26, Y+62	; 0x3e
    277c:	bf ad       	ldd	r27, Y+63	; 0x3f
    277e:	23 97       	sbiw	r28, 0x03	; 3
    2780:	8c 8b       	std	Y+20, r24	; 0x14
    2782:	9d 8b       	std	Y+21, r25	; 0x15
    2784:	ae 8b       	std	Y+22, r26	; 0x16
    2786:	bf 8b       	std	Y+23, r27	; 0x17

00002788 <.LBB71>:
	__tmp = ((F_CPU) / 4e3) * __ms;
    2788:	20 e0       	ldi	r18, 0x00	; 0
    278a:	30 e0       	ldi	r19, 0x00	; 0
    278c:	4a e7       	ldi	r20, 0x7A	; 122
    278e:	55 e4       	ldi	r21, 0x45	; 69
    2790:	6c 89       	ldd	r22, Y+20	; 0x14
    2792:	7d 89       	ldd	r23, Y+21	; 0x15
    2794:	8e 89       	ldd	r24, Y+22	; 0x16
    2796:	9f 89       	ldd	r25, Y+23	; 0x17
    2798:	0e 94 17 19 	call	0x322e	; 0x322e <__mulsf3>
    279c:	27 96       	adiw	r28, 0x07	; 7
    279e:	6c af       	std	Y+60, r22	; 0x3c
    27a0:	7d af       	std	Y+61, r23	; 0x3d
    27a2:	8e af       	std	Y+62, r24	; 0x3e
    27a4:	9f af       	std	Y+63, r25	; 0x3f
    27a6:	27 97       	sbiw	r28, 0x07	; 7
    27a8:	27 96       	adiw	r28, 0x07	; 7
    27aa:	2c ad       	ldd	r18, Y+60	; 0x3c
    27ac:	3d ad       	ldd	r19, Y+61	; 0x3d
    27ae:	4e ad       	ldd	r20, Y+62	; 0x3e
    27b0:	5f ad       	ldd	r21, Y+63	; 0x3f
    27b2:	27 97       	sbiw	r28, 0x07	; 7
    27b4:	28 8f       	std	Y+24, r18	; 0x18
    27b6:	39 8f       	std	Y+25, r19	; 0x19
    27b8:	4a 8f       	std	Y+26, r20	; 0x1a
    27ba:	5b 8f       	std	Y+27, r21	; 0x1b

000027bc <.Loc.95>:
	if (__tmp < 1.0)
    27bc:	20 e0       	ldi	r18, 0x00	; 0
    27be:	30 e0       	ldi	r19, 0x00	; 0
    27c0:	40 e8       	ldi	r20, 0x80	; 128
    27c2:	5f e3       	ldi	r21, 0x3F	; 63
    27c4:	68 8d       	ldd	r22, Y+24	; 0x18
    27c6:	79 8d       	ldd	r23, Y+25	; 0x19
    27c8:	8a 8d       	ldd	r24, Y+26	; 0x1a
    27ca:	9b 8d       	ldd	r25, Y+27	; 0x1b
    27cc:	0e 94 ba 17 	call	0x2f74	; 0x2f74 <__cmpsf2>
    27d0:	88 23       	and	r24, r24
    27d2:	2c f4       	brge	.+10     	; 0x27de <.L64>

000027d4 <.Loc.96>:
		__ticks = 1;
    27d4:	81 e0       	ldi	r24, 0x01	; 1
    27d6:	90 e0       	ldi	r25, 0x00	; 0
    27d8:	9d 8f       	std	Y+29, r25	; 0x1d
    27da:	8c 8f       	std	Y+28, r24	; 0x1c
    27dc:	62 c0       	rjmp	.+196    	; 0x28a2 <.L43>

000027de <.L64>:
	else if (__tmp > 65535)
    27de:	20 e0       	ldi	r18, 0x00	; 0
    27e0:	3f ef       	ldi	r19, 0xFF	; 255
    27e2:	4f e7       	ldi	r20, 0x7F	; 127
    27e4:	57 e4       	ldi	r21, 0x47	; 71
    27e6:	68 8d       	ldd	r22, Y+24	; 0x18
    27e8:	79 8d       	ldd	r23, Y+25	; 0x19
    27ea:	8a 8d       	ldd	r24, Y+26	; 0x1a
    27ec:	9b 8d       	ldd	r25, Y+27	; 0x1b
    27ee:	0e 94 12 19 	call	0x3224	; 0x3224 <__gesf2>
    27f2:	88 23       	and	r24, r24
    27f4:	09 f0       	breq	.+2      	; 0x27f8 <L0^A>

000027f6 <L0^A>:
    27f6:	0c f4       	brge	.+2      	; 0x27fa <.Loc.98>

000027f8 <L0^A>:
    27f8:	42 c0       	rjmp	.+132    	; 0x287e <.L65>

000027fa <.Loc.98>:
		__ticks = (uint16_t) (__ms * 10.0);
    27fa:	20 e0       	ldi	r18, 0x00	; 0
    27fc:	30 e0       	ldi	r19, 0x00	; 0
    27fe:	40 e2       	ldi	r20, 0x20	; 32
    2800:	51 e4       	ldi	r21, 0x41	; 65
    2802:	6c 89       	ldd	r22, Y+20	; 0x14
    2804:	7d 89       	ldd	r23, Y+21	; 0x15
    2806:	8e 89       	ldd	r24, Y+22	; 0x16
    2808:	9f 89       	ldd	r25, Y+23	; 0x17
    280a:	0e 94 17 19 	call	0x322e	; 0x322e <__mulsf3>
    280e:	2b 96       	adiw	r28, 0x0b	; 11
    2810:	6c af       	std	Y+60, r22	; 0x3c
    2812:	7d af       	std	Y+61, r23	; 0x3d
    2814:	8e af       	std	Y+62, r24	; 0x3e
    2816:	9f af       	std	Y+63, r25	; 0x3f
    2818:	2b 97       	sbiw	r28, 0x0b	; 11
    281a:	2b 96       	adiw	r28, 0x0b	; 11
    281c:	8c ad       	ldd	r24, Y+60	; 0x3c
    281e:	9d ad       	ldd	r25, Y+61	; 0x3d
    2820:	ae ad       	ldd	r26, Y+62	; 0x3e
    2822:	bf ad       	ldd	r27, Y+63	; 0x3f
    2824:	2b 97       	sbiw	r28, 0x0b	; 11
    2826:	8f a7       	std	Y+47, r24	; 0x2f
    2828:	98 ab       	std	Y+48, r25	; 0x30
    282a:	a9 ab       	std	Y+49, r26	; 0x31
    282c:	ba ab       	std	Y+50, r27	; 0x32

0000282e <.Loc.99>:
    282e:	6f a5       	ldd	r22, Y+47	; 0x2f
    2830:	78 a9       	ldd	r23, Y+48	; 0x30
    2832:	89 a9       	ldd	r24, Y+49	; 0x31
    2834:	9a a9       	ldd	r25, Y+50	; 0x32
    2836:	0e 94 31 18 	call	0x3062	; 0x3062 <__fixunssfsi>
    283a:	2f 96       	adiw	r28, 0x0f	; 15
    283c:	6c af       	std	Y+60, r22	; 0x3c
    283e:	7d af       	std	Y+61, r23	; 0x3d
    2840:	8e af       	std	Y+62, r24	; 0x3e
    2842:	9f af       	std	Y+63, r25	; 0x3f
    2844:	2f 97       	sbiw	r28, 0x0f	; 15
    2846:	2d 96       	adiw	r28, 0x0d	; 13
    2848:	ae ad       	ldd	r26, Y+62	; 0x3e
    284a:	bf ad       	ldd	r27, Y+63	; 0x3f
    284c:	2d 97       	sbiw	r28, 0x0d	; 13
    284e:	bd 8f       	std	Y+29, r27	; 0x1d
    2850:	ac 8f       	std	Y+28, r26	; 0x1c

00002852 <.Loc.100>:
		while(__ticks)
    2852:	10 c0       	rjmp	.+32     	; 0x2874 <.L46>

00002854 <.L47>:
    2854:	80 e9       	ldi	r24, 0x90	; 144
    2856:	91 e0       	ldi	r25, 0x01	; 1
    2858:	9f 8f       	std	Y+31, r25	; 0x1f
    285a:	8e 8f       	std	Y+30, r24	; 0x1e

0000285c <.LBB73>:
	__asm__ volatile (
    285c:	8e 8d       	ldd	r24, Y+30	; 0x1e
    285e:	9f 8d       	ldd	r25, Y+31	; 0x1f

00002860 <.L1^B5>:
    2860:	01 97       	sbiw	r24, 0x01	; 1
    2862:	f1 f7       	brne	.-4      	; 0x2860 <.L1^B5>
    2864:	9f 8f       	std	Y+31, r25	; 0x1f
    2866:	8e 8f       	std	Y+30, r24	; 0x1e

00002868 <.Loc.102>:
	...

0000286a <.LBE73>:
			__ticks --;
    286a:	8c 8d       	ldd	r24, Y+28	; 0x1c
    286c:	9d 8d       	ldd	r25, Y+29	; 0x1d
    286e:	01 97       	sbiw	r24, 0x01	; 1
    2870:	9d 8f       	std	Y+29, r25	; 0x1d
    2872:	8c 8f       	std	Y+28, r24	; 0x1c

00002874 <.L46>:
		while(__ticks)
    2874:	8c 8d       	ldd	r24, Y+28	; 0x1c
    2876:	9d 8d       	ldd	r25, Y+29	; 0x1d
    2878:	00 97       	sbiw	r24, 0x00	; 0
    287a:	61 f7       	brne	.-40     	; 0x2854 <.L47>

0000287c <.Loc.105>:
		return;
    287c:	58 c0       	rjmp	.+176    	; 0x292e <.L38>

0000287e <.L65>:
		__ticks = (uint16_t)__tmp;
    287e:	68 8d       	ldd	r22, Y+24	; 0x18
    2880:	79 8d       	ldd	r23, Y+25	; 0x19
    2882:	8a 8d       	ldd	r24, Y+26	; 0x1a
    2884:	9b 8d       	ldd	r25, Y+27	; 0x1b
    2886:	0e 94 31 18 	call	0x3062	; 0x3062 <__fixunssfsi>
    288a:	63 96       	adiw	r28, 0x13	; 19
    288c:	6c af       	std	Y+60, r22	; 0x3c
    288e:	7d af       	std	Y+61, r23	; 0x3d
    2890:	8e af       	std	Y+62, r24	; 0x3e
    2892:	9f af       	std	Y+63, r25	; 0x3f
    2894:	63 97       	sbiw	r28, 0x13	; 19
    2896:	61 96       	adiw	r28, 0x11	; 17
    2898:	ee ad       	ldd	r30, Y+62	; 0x3e
    289a:	ff ad       	ldd	r31, Y+63	; 0x3f
    289c:	61 97       	sbiw	r28, 0x11	; 17
    289e:	fd 8f       	std	Y+29, r31	; 0x1d
    28a0:	ec 8f       	std	Y+28, r30	; 0x1c

000028a2 <.L43>:
    28a2:	8c 8d       	ldd	r24, Y+28	; 0x1c
    28a4:	9d 8d       	ldd	r25, Y+29	; 0x1d
    28a6:	99 a3       	std	Y+33, r25	; 0x21
    28a8:	88 a3       	std	Y+32, r24	; 0x20

000028aa <.LBB75>:
    28aa:	88 a1       	ldd	r24, Y+32	; 0x20
    28ac:	99 a1       	ldd	r25, Y+33	; 0x21

000028ae <.L1^B6>:
    28ae:	01 97       	sbiw	r24, 0x01	; 1
    28b0:	f1 f7       	brne	.-4      	; 0x28ae <.L1^B6>
    28b2:	99 a3       	std	Y+33, r25	; 0x21
    28b4:	88 a3       	std	Y+32, r24	; 0x20

000028b6 <.Loc.108>:
}
    28b6:	3b c0       	rjmp	.+118    	; 0x292e <.L38>

000028b8 <.L63>:
	else if (__tmp > 255)
    28b8:	20 e0       	ldi	r18, 0x00	; 0
    28ba:	30 e0       	ldi	r19, 0x00	; 0
    28bc:	4f e7       	ldi	r20, 0x7F	; 127
    28be:	53 e4       	ldi	r21, 0x43	; 67
    28c0:	6b 85       	ldd	r22, Y+11	; 0x0b
    28c2:	7c 85       	ldd	r23, Y+12	; 0x0c
    28c4:	8d 85       	ldd	r24, Y+13	; 0x0d
    28c6:	9e 85       	ldd	r25, Y+14	; 0x0e
    28c8:	0e 94 12 19 	call	0x3224	; 0x3224 <__gesf2>
    28cc:	88 23       	and	r24, r24
    28ce:	f9 f0       	breq	.+62     	; 0x290e <.L66>
    28d0:	f4 f0       	brlt	.+60     	; 0x290e <.L66>

000028d2 <.LBB77>:
		uint16_t __ticks=(uint16_t)__tmp2;
    28d2:	6f 85       	ldd	r22, Y+15	; 0x0f
    28d4:	78 89       	ldd	r23, Y+16	; 0x10
    28d6:	89 89       	ldd	r24, Y+17	; 0x11
    28d8:	9a 89       	ldd	r25, Y+18	; 0x12
    28da:	0e 94 31 18 	call	0x3062	; 0x3062 <__fixunssfsi>
    28de:	67 96       	adiw	r28, 0x17	; 23
    28e0:	6c af       	std	Y+60, r22	; 0x3c
    28e2:	7d af       	std	Y+61, r23	; 0x3d
    28e4:	8e af       	std	Y+62, r24	; 0x3e
    28e6:	9f af       	std	Y+63, r25	; 0x3f
    28e8:	67 97       	sbiw	r28, 0x17	; 23
    28ea:	65 96       	adiw	r28, 0x15	; 21
    28ec:	2e ad       	ldd	r18, Y+62	; 0x3e
    28ee:	3f ad       	ldd	r19, Y+63	; 0x3f
    28f0:	65 97       	sbiw	r28, 0x15	; 21
    28f2:	3b a3       	std	Y+35, r19	; 0x23
    28f4:	2a a3       	std	Y+34, r18	; 0x22
    28f6:	8a a1       	ldd	r24, Y+34	; 0x22
    28f8:	9b a1       	ldd	r25, Y+35	; 0x23
    28fa:	9d a3       	std	Y+37, r25	; 0x25
    28fc:	8c a3       	std	Y+36, r24	; 0x24

000028fe <.LBB78>:
	__asm__ volatile (
    28fe:	8c a1       	ldd	r24, Y+36	; 0x24
    2900:	9d a1       	ldd	r25, Y+37	; 0x25

00002902 <.L1^B7>:
    2902:	01 97       	sbiw	r24, 0x01	; 1
    2904:	f1 f7       	brne	.-4      	; 0x2902 <.L1^B7>
    2906:	9d a3       	std	Y+37, r25	; 0x25
    2908:	8c a3       	std	Y+36, r24	; 0x24

0000290a <.Loc.112>:
	...

0000290c <.LBE78>:
		return;
    290c:	17 c0       	rjmp	.+46     	; 0x293c <.L51>

0000290e <.L66>:
		__ticks = (uint8_t)__tmp;
    290e:	6b 85       	ldd	r22, Y+11	; 0x0b
    2910:	7c 85       	ldd	r23, Y+12	; 0x0c
    2912:	8d 85       	ldd	r24, Y+13	; 0x0d
    2914:	9e 85       	ldd	r25, Y+14	; 0x0e
    2916:	0e 94 31 18 	call	0x3062	; 0x3062 <__fixunssfsi>
    291a:	6b 96       	adiw	r28, 0x1b	; 27
    291c:	6c af       	std	Y+60, r22	; 0x3c
    291e:	7d af       	std	Y+61, r23	; 0x3d
    2920:	8e af       	std	Y+62, r24	; 0x3e
    2922:	9f af       	std	Y+63, r25	; 0x3f
    2924:	6b 97       	sbiw	r28, 0x1b	; 27
    2926:	68 96       	adiw	r28, 0x18	; 24
    2928:	3f ad       	ldd	r19, Y+63	; 0x3f
    292a:	68 97       	sbiw	r28, 0x18	; 24
    292c:	3b 8b       	std	Y+19, r19	; 0x13

0000292e <.L38>:
    292e:	8b 89       	ldd	r24, Y+19	; 0x13
    2930:	8e a3       	std	Y+38, r24	; 0x26

00002932 <.LBB80>:
	__asm__ volatile (
    2932:	8e a1       	ldd	r24, Y+38	; 0x26

00002934 <.L1^B8>:
    2934:	8a 95       	dec	r24
    2936:	f1 f7       	brne	.-4      	; 0x2934 <.L1^B8>
    2938:	8e a3       	std	Y+38, r24	; 0x26

0000293a <.Loc.116>:
	...

0000293c <.L51>:
    _delay_us(10);
    PORTJ &= ~(1 << US2_TRIG_PIN);
    293c:	85 e0       	ldi	r24, 0x05	; 5
    293e:	91 e0       	ldi	r25, 0x01	; 1
    2940:	dc 01       	movw	r26, r24
    2942:	2c 91       	ld	r18, X

00002944 <.Loc.118>:
    2944:	85 e0       	ldi	r24, 0x05	; 5
    2946:	91 e0       	ldi	r25, 0x01	; 1

00002948 <.Loc.119>:
    2948:	2d 7f       	andi	r18, 0xFD	; 253
    294a:	fc 01       	movw	r30, r24
    294c:	20 83       	st	Z, r18

0000294e <.Loc.120>:
	...

00002950 <.L52>:

    // Wait for echo pin to go high
    while (!(PINJ & (1 << US2_ECHO_PIN)));
    2950:	83 e0       	ldi	r24, 0x03	; 3
    2952:	91 e0       	ldi	r25, 0x01	; 1
    2954:	dc 01       	movw	r26, r24
    2956:	8c 91       	ld	r24, X

00002958 <.Loc.122>:
    2958:	88 2f       	mov	r24, r24
    295a:	90 e0       	ldi	r25, 0x00	; 0
    295c:	81 70       	andi	r24, 0x01	; 1
    295e:	99 27       	eor	r25, r25

00002960 <.Loc.123>:
    2960:	00 97       	sbiw	r24, 0x00	; 0
    2962:	b1 f3       	breq	.-20     	; 0x2950 <.L52>

00002964 <.Loc.124>:

    // Start timer
    TCNT1 = 0;
    2964:	84 e8       	ldi	r24, 0x84	; 132
    2966:	90 e0       	ldi	r25, 0x00	; 0

00002968 <.Loc.125>:
    2968:	fc 01       	movw	r30, r24
    296a:	11 82       	std	Z+1, r1	; 0x01
    296c:	10 82       	st	Z, r1

0000296e <.Loc.126>:
    TCCR1B |= (1 << CS11); // Prescaler of 8
    296e:	81 e8       	ldi	r24, 0x81	; 129
    2970:	90 e0       	ldi	r25, 0x00	; 0
    2972:	dc 01       	movw	r26, r24
    2974:	2c 91       	ld	r18, X
    2976:	81 e8       	ldi	r24, 0x81	; 129
    2978:	90 e0       	ldi	r25, 0x00	; 0

0000297a <.Loc.127>:
    297a:	22 60       	ori	r18, 0x02	; 2
    297c:	fc 01       	movw	r30, r24
    297e:	20 83       	st	Z, r18

00002980 <.Loc.128>:

    // Wait for echo pin to go low
    while (PINJ & (1 << US2_ECHO_PIN)) {
    2980:	0b c0       	rjmp	.+22     	; 0x2998 <.L53>

00002982 <.L55>:
        if (TCNT1 > 60000) {
    2982:	84 e8       	ldi	r24, 0x84	; 132
    2984:	90 e0       	ldi	r25, 0x00	; 0
    2986:	dc 01       	movw	r26, r24
    2988:	8d 91       	ld	r24, X+
    298a:	9c 91       	ld	r25, X
    298c:	11 97       	sbiw	r26, 0x01	; 1

0000298e <.Loc.130>:
    298e:	80 36       	cpi	r24, 0x60	; 96
    2990:	ba ee       	ldi	r27, 0xEA	; 234
    2992:	9b 07       	cpc	r25, r27
    2994:	09 f0       	breq	.+2      	; 0x2998 <.L53>

00002996 <L0^A>:
    2996:	58 f4       	brcc	.+22     	; 0x29ae <.L67>

00002998 <.L53>:
    while (PINJ & (1 << US2_ECHO_PIN)) {
    2998:	83 e0       	ldi	r24, 0x03	; 3
    299a:	91 e0       	ldi	r25, 0x01	; 1
    299c:	fc 01       	movw	r30, r24
    299e:	80 81       	ld	r24, Z

000029a0 <.Loc.132>:
    29a0:	88 2f       	mov	r24, r24
    29a2:	90 e0       	ldi	r25, 0x00	; 0
    29a4:	81 70       	andi	r24, 0x01	; 1
    29a6:	99 27       	eor	r25, r25

000029a8 <.Loc.133>:
    29a8:	00 97       	sbiw	r24, 0x00	; 0
    29aa:	59 f7       	brne	.-42     	; 0x2982 <.L55>
    29ac:	01 c0       	rjmp	.+2      	; 0x29b0 <.L54>

000029ae <.L67>:
	...

000029b0 <.L54>:
            break;
        }
    }

    // Stop timer
    TCCR1B &= ~(1 << CS11);
    29b0:	81 e8       	ldi	r24, 0x81	; 129
    29b2:	90 e0       	ldi	r25, 0x00	; 0
    29b4:	dc 01       	movw	r26, r24
    29b6:	2c 91       	ld	r18, X

000029b8 <.Loc.136>:
    29b8:	81 e8       	ldi	r24, 0x81	; 129
    29ba:	90 e0       	ldi	r25, 0x00	; 0

000029bc <.Loc.137>:
    29bc:	2d 7f       	andi	r18, 0xFD	; 253
    29be:	fc 01       	movw	r30, r24
    29c0:	20 83       	st	Z, r18

000029c2 <.Loc.138>:

    // Read timer value
    duration = TCNT1;
    29c2:	84 e8       	ldi	r24, 0x84	; 132
    29c4:	90 e0       	ldi	r25, 0x00	; 0

000029c6 <.Loc.139>:
    29c6:	dc 01       	movw	r26, r24
    29c8:	8d 91       	ld	r24, X+
    29ca:	9c 91       	ld	r25, X
    29cc:	9a 83       	std	Y+2, r25	; 0x02
    29ce:	89 83       	std	Y+1, r24	; 0x01

000029d0 <.Loc.140>:

    // Convert duration to distance in cm
    float distance = duration / 58.0 / 2.0;
    29d0:	89 81       	ldd	r24, Y+1	; 0x01
    29d2:	9a 81       	ldd	r25, Y+2	; 0x02
    29d4:	9c 01       	movw	r18, r24
    29d6:	40 e0       	ldi	r20, 0x00	; 0
    29d8:	50 e0       	ldi	r21, 0x00	; 0
    29da:	6f 96       	adiw	r28, 0x1f	; 31
    29dc:	2c af       	std	Y+60, r18	; 0x3c
    29de:	3d af       	std	Y+61, r19	; 0x3d
    29e0:	4e af       	std	Y+62, r20	; 0x3e
    29e2:	5f af       	std	Y+63, r21	; 0x3f
    29e4:	6f 97       	sbiw	r28, 0x1f	; 31
    29e6:	6f 96       	adiw	r28, 0x1f	; 31
    29e8:	6c ad       	ldd	r22, Y+60	; 0x3c
    29ea:	7d ad       	ldd	r23, Y+61	; 0x3d
    29ec:	8e ad       	ldd	r24, Y+62	; 0x3e
    29ee:	9f ad       	ldd	r25, Y+63	; 0x3f
    29f0:	6f 97       	sbiw	r28, 0x1f	; 31
    29f2:	0e 94 60 18 	call	0x30c0	; 0x30c0 <__floatunsisf>
    29f6:	6f a3       	std	Y+39, r22	; 0x27
    29f8:	78 a7       	std	Y+40, r23	; 0x28
    29fa:	89 a7       	std	Y+41, r24	; 0x29
    29fc:	9a a7       	std	Y+42, r25	; 0x2a
    29fe:	20 e0       	ldi	r18, 0x00	; 0
    2a00:	30 e0       	ldi	r19, 0x00	; 0
    2a02:	48 e6       	ldi	r20, 0x68	; 104
    2a04:	52 e4       	ldi	r21, 0x42	; 66
    2a06:	6f a1       	ldd	r22, Y+39	; 0x27
    2a08:	78 a5       	ldd	r23, Y+40	; 0x28
    2a0a:	89 a5       	ldd	r24, Y+41	; 0x29
    2a0c:	9a a5       	ldd	r25, Y+42	; 0x2a
    2a0e:	0e 94 bf 17 	call	0x2f7e	; 0x2f7e <__divsf3>
    2a12:	a3 96       	adiw	r28, 0x23	; 35
    2a14:	6c af       	std	Y+60, r22	; 0x3c
    2a16:	7d af       	std	Y+61, r23	; 0x3d
    2a18:	8e af       	std	Y+62, r24	; 0x3e
    2a1a:	9f af       	std	Y+63, r25	; 0x3f
    2a1c:	a3 97       	sbiw	r28, 0x23	; 35
    2a1e:	a3 96       	adiw	r28, 0x23	; 35
    2a20:	8c ad       	ldd	r24, Y+60	; 0x3c
    2a22:	9d ad       	ldd	r25, Y+61	; 0x3d
    2a24:	ae ad       	ldd	r26, Y+62	; 0x3e
    2a26:	bf ad       	ldd	r27, Y+63	; 0x3f
    2a28:	a3 97       	sbiw	r28, 0x23	; 35
    2a2a:	8b a7       	std	Y+43, r24	; 0x2b
    2a2c:	9c a7       	std	Y+44, r25	; 0x2c
    2a2e:	ad a7       	std	Y+45, r26	; 0x2d
    2a30:	be a7       	std	Y+46, r27	; 0x2e

00002a32 <.Loc.141>:
    2a32:	20 e0       	ldi	r18, 0x00	; 0
    2a34:	30 e0       	ldi	r19, 0x00	; 0
    2a36:	40 e0       	ldi	r20, 0x00	; 0
    2a38:	50 e4       	ldi	r21, 0x40	; 64
    2a3a:	6b a5       	ldd	r22, Y+43	; 0x2b
    2a3c:	7c a5       	ldd	r23, Y+44	; 0x2c
    2a3e:	8d a5       	ldd	r24, Y+45	; 0x2d
    2a40:	9e a5       	ldd	r25, Y+46	; 0x2e
    2a42:	0e 94 bf 17 	call	0x2f7e	; 0x2f7e <__divsf3>
    2a46:	a7 96       	adiw	r28, 0x27	; 39
    2a48:	6c af       	std	Y+60, r22	; 0x3c
    2a4a:	7d af       	std	Y+61, r23	; 0x3d
    2a4c:	8e af       	std	Y+62, r24	; 0x3e
    2a4e:	9f af       	std	Y+63, r25	; 0x3f
    2a50:	a7 97       	sbiw	r28, 0x27	; 39
    2a52:	a7 96       	adiw	r28, 0x27	; 39
    2a54:	2c ad       	ldd	r18, Y+60	; 0x3c
    2a56:	3d ad       	ldd	r19, Y+61	; 0x3d
    2a58:	4e ad       	ldd	r20, Y+62	; 0x3e
    2a5a:	5f ad       	ldd	r21, Y+63	; 0x3f
    2a5c:	a7 97       	sbiw	r28, 0x27	; 39
    2a5e:	2b 83       	std	Y+3, r18	; 0x03
    2a60:	3c 83       	std	Y+4, r19	; 0x04
    2a62:	4d 83       	std	Y+5, r20	; 0x05
    2a64:	5e 83       	std	Y+6, r21	; 0x06

00002a66 <.Loc.142>:

    return distance;
    2a66:	8b 81       	ldd	r24, Y+3	; 0x03
    2a68:	9c 81       	ldd	r25, Y+4	; 0x04
    2a6a:	ad 81       	ldd	r26, Y+5	; 0x05
    2a6c:	be 81       	ldd	r27, Y+6	; 0x06
    2a6e:	8b ab       	std	Y+51, r24	; 0x33
    2a70:	9c ab       	std	Y+52, r25	; 0x34
    2a72:	ad ab       	std	Y+53, r26	; 0x35
    2a74:	be ab       	std	Y+54, r27	; 0x36

00002a76 <.Loc.143>:
}
    2a76:	6b a9       	ldd	r22, Y+51	; 0x33
    2a78:	7c a9       	ldd	r23, Y+52	; 0x34
    2a7a:	8d a9       	ldd	r24, Y+53	; 0x35
    2a7c:	9e a9       	ldd	r25, Y+54	; 0x36
    2a7e:	ca 59       	subi	r28, 0x9A	; 154
    2a80:	df 4f       	sbci	r29, 0xFF	; 255
    2a82:	0f b6       	in	r0, 0x3f	; 63
    2a84:	f8 94       	cli
    2a86:	de bf       	out	0x3e, r29	; 62
    2a88:	0f be       	out	0x3f, r0	; 63
    2a8a:	cd bf       	out	0x3d, r28	; 61
    2a8c:	df 91       	pop	r29
    2a8e:	cf 91       	pop	r28
    2a90:	08 95       	ret

00002a92 <measure_distance3>:

// Measure distance with sensor 3
float measure_distance3(void) {
    2a92:	cf 93       	push	r28
    2a94:	df 93       	push	r29
    2a96:	cd b7       	in	r28, 0x3d	; 61
    2a98:	de b7       	in	r29, 0x3e	; 62
    2a9a:	c6 56       	subi	r28, 0x66	; 102
    2a9c:	d1 09       	sbc	r29, r1
    2a9e:	0f b6       	in	r0, 0x3f	; 63
    2aa0:	f8 94       	cli
    2aa2:	de bf       	out	0x3e, r29	; 62
    2aa4:	0f be       	out	0x3f, r0	; 63
    2aa6:	cd bf       	out	0x3d, r28	; 61

00002aa8 <.Loc.145>:
    uint16_t duration;

    // Trigger pulse
    PORTH |= (1 << US3_TRIG_PIN);
    2aa8:	82 e0       	ldi	r24, 0x02	; 2
    2aaa:	91 e0       	ldi	r25, 0x01	; 1
    2aac:	dc 01       	movw	r26, r24
    2aae:	2c 91       	ld	r18, X
    2ab0:	82 e0       	ldi	r24, 0x02	; 2
    2ab2:	91 e0       	ldi	r25, 0x01	; 1

00002ab4 <.Loc.146>:
    2ab4:	20 61       	ori	r18, 0x10	; 16
    2ab6:	fc 01       	movw	r30, r24
    2ab8:	20 83       	st	Z, r18
    2aba:	80 e0       	ldi	r24, 0x00	; 0
    2abc:	90 e0       	ldi	r25, 0x00	; 0
    2abe:	a0 e2       	ldi	r26, 0x20	; 32
    2ac0:	b1 e4       	ldi	r27, 0x41	; 65
    2ac2:	8f 83       	std	Y+7, r24	; 0x07
    2ac4:	98 87       	std	Y+8, r25	; 0x08
    2ac6:	a9 87       	std	Y+9, r26	; 0x09
    2ac8:	ba 87       	std	Y+10, r27	; 0x0a

00002aca <.LBB82>:
	__tmp = ((F_CPU) / 3e6) * __us;
    2aca:	2b ea       	ldi	r18, 0xAB	; 171
    2acc:	3a ea       	ldi	r19, 0xAA	; 170
    2ace:	4a ea       	ldi	r20, 0xAA	; 170
    2ad0:	50 e4       	ldi	r21, 0x40	; 64
    2ad2:	6f 81       	ldd	r22, Y+7	; 0x07
    2ad4:	78 85       	ldd	r23, Y+8	; 0x08
    2ad6:	89 85       	ldd	r24, Y+9	; 0x09
    2ad8:	9a 85       	ldd	r25, Y+10	; 0x0a
    2ada:	0e 94 17 19 	call	0x322e	; 0x322e <__mulsf3>
    2ade:	6f ab       	std	Y+55, r22	; 0x37
    2ae0:	78 af       	std	Y+56, r23	; 0x38
    2ae2:	89 af       	std	Y+57, r24	; 0x39
    2ae4:	9a af       	std	Y+58, r25	; 0x3a
    2ae6:	2f a9       	ldd	r18, Y+55	; 0x37
    2ae8:	38 ad       	ldd	r19, Y+56	; 0x38
    2aea:	49 ad       	ldd	r20, Y+57	; 0x39
    2aec:	5a ad       	ldd	r21, Y+58	; 0x3a
    2aee:	2b 87       	std	Y+11, r18	; 0x0b
    2af0:	3c 87       	std	Y+12, r19	; 0x0c
    2af2:	4d 87       	std	Y+13, r20	; 0x0d
    2af4:	5e 87       	std	Y+14, r21	; 0x0e

00002af6 <.Loc.148>:
	__tmp2 = ((F_CPU) / 4e6) * __us;
    2af6:	20 e0       	ldi	r18, 0x00	; 0
    2af8:	30 e0       	ldi	r19, 0x00	; 0
    2afa:	40 e8       	ldi	r20, 0x80	; 128
    2afc:	50 e4       	ldi	r21, 0x40	; 64
    2afe:	6f 81       	ldd	r22, Y+7	; 0x07
    2b00:	78 85       	ldd	r23, Y+8	; 0x08
    2b02:	89 85       	ldd	r24, Y+9	; 0x09
    2b04:	9a 85       	ldd	r25, Y+10	; 0x0a
    2b06:	0e 94 17 19 	call	0x322e	; 0x322e <__mulsf3>
    2b0a:	6b af       	std	Y+59, r22	; 0x3b
    2b0c:	7c af       	std	Y+60, r23	; 0x3c
    2b0e:	8d af       	std	Y+61, r24	; 0x3d
    2b10:	9e af       	std	Y+62, r25	; 0x3e
    2b12:	8b ad       	ldd	r24, Y+59	; 0x3b
    2b14:	9c ad       	ldd	r25, Y+60	; 0x3c
    2b16:	ad ad       	ldd	r26, Y+61	; 0x3d
    2b18:	be ad       	ldd	r27, Y+62	; 0x3e
    2b1a:	8f 87       	std	Y+15, r24	; 0x0f
    2b1c:	98 8b       	std	Y+16, r25	; 0x10
    2b1e:	a9 8b       	std	Y+17, r26	; 0x11
    2b20:	ba 8b       	std	Y+18, r27	; 0x12

00002b22 <.Loc.149>:
	if (__tmp < 1.0)
    2b22:	20 e0       	ldi	r18, 0x00	; 0
    2b24:	30 e0       	ldi	r19, 0x00	; 0
    2b26:	40 e8       	ldi	r20, 0x80	; 128
    2b28:	5f e3       	ldi	r21, 0x3F	; 63
    2b2a:	6b 85       	ldd	r22, Y+11	; 0x0b
    2b2c:	7c 85       	ldd	r23, Y+12	; 0x0c
    2b2e:	8d 85       	ldd	r24, Y+13	; 0x0d
    2b30:	9e 85       	ldd	r25, Y+14	; 0x0e
    2b32:	0e 94 ba 17 	call	0x2f74	; 0x2f74 <__cmpsf2>
    2b36:	88 23       	and	r24, r24
    2b38:	1c f4       	brge	.+6      	; 0x2b40 <.L95>

00002b3a <.Loc.150>:
		__ticks = 1;
    2b3a:	81 e0       	ldi	r24, 0x01	; 1
    2b3c:	8b 8b       	std	Y+19, r24	; 0x13
    2b3e:	fb c0       	rjmp	.+502    	; 0x2d36 <.L71>

00002b40 <.L95>:
	else if (__tmp2 > 65535)
    2b40:	20 e0       	ldi	r18, 0x00	; 0
    2b42:	3f ef       	ldi	r19, 0xFF	; 255
    2b44:	4f e7       	ldi	r20, 0x7F	; 127
    2b46:	57 e4       	ldi	r21, 0x47	; 71
    2b48:	6f 85       	ldd	r22, Y+15	; 0x0f
    2b4a:	78 89       	ldd	r23, Y+16	; 0x10
    2b4c:	89 89       	ldd	r24, Y+17	; 0x11
    2b4e:	9a 89       	ldd	r25, Y+18	; 0x12
    2b50:	0e 94 12 19 	call	0x3224	; 0x3224 <__gesf2>
    2b54:	88 23       	and	r24, r24
    2b56:	09 f0       	breq	.+2      	; 0x2b5a <L0^A>

00002b58 <L0^A>:
    2b58:	0c f4       	brge	.+2      	; 0x2b5c <.Loc.152>

00002b5a <L0^A>:
    2b5a:	b2 c0       	rjmp	.+356    	; 0x2cc0 <.L96>

00002b5c <.Loc.152>:
		_delay_ms(__us / 1000.0);
    2b5c:	20 e0       	ldi	r18, 0x00	; 0
    2b5e:	30 e0       	ldi	r19, 0x00	; 0
    2b60:	4a e7       	ldi	r20, 0x7A	; 122
    2b62:	54 e4       	ldi	r21, 0x44	; 68
    2b64:	6f 81       	ldd	r22, Y+7	; 0x07
    2b66:	78 85       	ldd	r23, Y+8	; 0x08
    2b68:	89 85       	ldd	r24, Y+9	; 0x09
    2b6a:	9a 85       	ldd	r25, Y+10	; 0x0a
    2b6c:	0e 94 bf 17 	call	0x2f7e	; 0x2f7e <__divsf3>
    2b70:	23 96       	adiw	r28, 0x03	; 3
    2b72:	6c af       	std	Y+60, r22	; 0x3c
    2b74:	7d af       	std	Y+61, r23	; 0x3d
    2b76:	8e af       	std	Y+62, r24	; 0x3e
    2b78:	9f af       	std	Y+63, r25	; 0x3f
    2b7a:	23 97       	sbiw	r28, 0x03	; 3
    2b7c:	23 96       	adiw	r28, 0x03	; 3
    2b7e:	8c ad       	ldd	r24, Y+60	; 0x3c
    2b80:	9d ad       	ldd	r25, Y+61	; 0x3d
    2b82:	ae ad       	ldd	r26, Y+62	; 0x3e
    2b84:	bf ad       	ldd	r27, Y+63	; 0x3f
    2b86:	23 97       	sbiw	r28, 0x03	; 3
    2b88:	8c 8b       	std	Y+20, r24	; 0x14
    2b8a:	9d 8b       	std	Y+21, r25	; 0x15
    2b8c:	ae 8b       	std	Y+22, r26	; 0x16
    2b8e:	bf 8b       	std	Y+23, r27	; 0x17

00002b90 <.LBB84>:
	__tmp = ((F_CPU) / 4e3) * __ms;
    2b90:	20 e0       	ldi	r18, 0x00	; 0
    2b92:	30 e0       	ldi	r19, 0x00	; 0
    2b94:	4a e7       	ldi	r20, 0x7A	; 122
    2b96:	55 e4       	ldi	r21, 0x45	; 69
    2b98:	6c 89       	ldd	r22, Y+20	; 0x14
    2b9a:	7d 89       	ldd	r23, Y+21	; 0x15
    2b9c:	8e 89       	ldd	r24, Y+22	; 0x16
    2b9e:	9f 89       	ldd	r25, Y+23	; 0x17
    2ba0:	0e 94 17 19 	call	0x322e	; 0x322e <__mulsf3>
    2ba4:	27 96       	adiw	r28, 0x07	; 7
    2ba6:	6c af       	std	Y+60, r22	; 0x3c
    2ba8:	7d af       	std	Y+61, r23	; 0x3d
    2baa:	8e af       	std	Y+62, r24	; 0x3e
    2bac:	9f af       	std	Y+63, r25	; 0x3f
    2bae:	27 97       	sbiw	r28, 0x07	; 7
    2bb0:	27 96       	adiw	r28, 0x07	; 7
    2bb2:	2c ad       	ldd	r18, Y+60	; 0x3c
    2bb4:	3d ad       	ldd	r19, Y+61	; 0x3d
    2bb6:	4e ad       	ldd	r20, Y+62	; 0x3e
    2bb8:	5f ad       	ldd	r21, Y+63	; 0x3f
    2bba:	27 97       	sbiw	r28, 0x07	; 7
    2bbc:	28 8f       	std	Y+24, r18	; 0x18
    2bbe:	39 8f       	std	Y+25, r19	; 0x19
    2bc0:	4a 8f       	std	Y+26, r20	; 0x1a
    2bc2:	5b 8f       	std	Y+27, r21	; 0x1b

00002bc4 <.Loc.154>:
	if (__tmp < 1.0)
    2bc4:	20 e0       	ldi	r18, 0x00	; 0
    2bc6:	30 e0       	ldi	r19, 0x00	; 0
    2bc8:	40 e8       	ldi	r20, 0x80	; 128
    2bca:	5f e3       	ldi	r21, 0x3F	; 63
    2bcc:	68 8d       	ldd	r22, Y+24	; 0x18
    2bce:	79 8d       	ldd	r23, Y+25	; 0x19
    2bd0:	8a 8d       	ldd	r24, Y+26	; 0x1a
    2bd2:	9b 8d       	ldd	r25, Y+27	; 0x1b
    2bd4:	0e 94 ba 17 	call	0x2f74	; 0x2f74 <__cmpsf2>
    2bd8:	88 23       	and	r24, r24
    2bda:	2c f4       	brge	.+10     	; 0x2be6 <.L97>

00002bdc <.Loc.155>:
		__ticks = 1;
    2bdc:	81 e0       	ldi	r24, 0x01	; 1
    2bde:	90 e0       	ldi	r25, 0x00	; 0
    2be0:	9d 8f       	std	Y+29, r25	; 0x1d
    2be2:	8c 8f       	std	Y+28, r24	; 0x1c
    2be4:	62 c0       	rjmp	.+196    	; 0x2caa <.L76>

00002be6 <.L97>:
	else if (__tmp > 65535)
    2be6:	20 e0       	ldi	r18, 0x00	; 0
    2be8:	3f ef       	ldi	r19, 0xFF	; 255
    2bea:	4f e7       	ldi	r20, 0x7F	; 127
    2bec:	57 e4       	ldi	r21, 0x47	; 71
    2bee:	68 8d       	ldd	r22, Y+24	; 0x18
    2bf0:	79 8d       	ldd	r23, Y+25	; 0x19
    2bf2:	8a 8d       	ldd	r24, Y+26	; 0x1a
    2bf4:	9b 8d       	ldd	r25, Y+27	; 0x1b
    2bf6:	0e 94 12 19 	call	0x3224	; 0x3224 <__gesf2>
    2bfa:	88 23       	and	r24, r24
    2bfc:	09 f0       	breq	.+2      	; 0x2c00 <L0^A>

00002bfe <L0^A>:
    2bfe:	0c f4       	brge	.+2      	; 0x2c02 <.Loc.157>

00002c00 <L0^A>:
    2c00:	42 c0       	rjmp	.+132    	; 0x2c86 <.L98>

00002c02 <.Loc.157>:
		__ticks = (uint16_t) (__ms * 10.0);
    2c02:	20 e0       	ldi	r18, 0x00	; 0
    2c04:	30 e0       	ldi	r19, 0x00	; 0
    2c06:	40 e2       	ldi	r20, 0x20	; 32
    2c08:	51 e4       	ldi	r21, 0x41	; 65
    2c0a:	6c 89       	ldd	r22, Y+20	; 0x14
    2c0c:	7d 89       	ldd	r23, Y+21	; 0x15
    2c0e:	8e 89       	ldd	r24, Y+22	; 0x16
    2c10:	9f 89       	ldd	r25, Y+23	; 0x17
    2c12:	0e 94 17 19 	call	0x322e	; 0x322e <__mulsf3>
    2c16:	2b 96       	adiw	r28, 0x0b	; 11
    2c18:	6c af       	std	Y+60, r22	; 0x3c
    2c1a:	7d af       	std	Y+61, r23	; 0x3d
    2c1c:	8e af       	std	Y+62, r24	; 0x3e
    2c1e:	9f af       	std	Y+63, r25	; 0x3f
    2c20:	2b 97       	sbiw	r28, 0x0b	; 11
    2c22:	2b 96       	adiw	r28, 0x0b	; 11
    2c24:	8c ad       	ldd	r24, Y+60	; 0x3c
    2c26:	9d ad       	ldd	r25, Y+61	; 0x3d
    2c28:	ae ad       	ldd	r26, Y+62	; 0x3e
    2c2a:	bf ad       	ldd	r27, Y+63	; 0x3f
    2c2c:	2b 97       	sbiw	r28, 0x0b	; 11
    2c2e:	8f a7       	std	Y+47, r24	; 0x2f
    2c30:	98 ab       	std	Y+48, r25	; 0x30
    2c32:	a9 ab       	std	Y+49, r26	; 0x31
    2c34:	ba ab       	std	Y+50, r27	; 0x32

00002c36 <.Loc.158>:
    2c36:	6f a5       	ldd	r22, Y+47	; 0x2f
    2c38:	78 a9       	ldd	r23, Y+48	; 0x30
    2c3a:	89 a9       	ldd	r24, Y+49	; 0x31
    2c3c:	9a a9       	ldd	r25, Y+50	; 0x32
    2c3e:	0e 94 31 18 	call	0x3062	; 0x3062 <__fixunssfsi>
    2c42:	2f 96       	adiw	r28, 0x0f	; 15
    2c44:	6c af       	std	Y+60, r22	; 0x3c
    2c46:	7d af       	std	Y+61, r23	; 0x3d
    2c48:	8e af       	std	Y+62, r24	; 0x3e
    2c4a:	9f af       	std	Y+63, r25	; 0x3f
    2c4c:	2f 97       	sbiw	r28, 0x0f	; 15
    2c4e:	2d 96       	adiw	r28, 0x0d	; 13
    2c50:	ae ad       	ldd	r26, Y+62	; 0x3e
    2c52:	bf ad       	ldd	r27, Y+63	; 0x3f
    2c54:	2d 97       	sbiw	r28, 0x0d	; 13
    2c56:	bd 8f       	std	Y+29, r27	; 0x1d
    2c58:	ac 8f       	std	Y+28, r26	; 0x1c

00002c5a <.Loc.159>:
		while(__ticks)
    2c5a:	10 c0       	rjmp	.+32     	; 0x2c7c <.L79>

00002c5c <.L80>:
    2c5c:	80 e9       	ldi	r24, 0x90	; 144
    2c5e:	91 e0       	ldi	r25, 0x01	; 1
    2c60:	9f 8f       	std	Y+31, r25	; 0x1f
    2c62:	8e 8f       	std	Y+30, r24	; 0x1e

00002c64 <.LBB86>:
	__asm__ volatile (
    2c64:	8e 8d       	ldd	r24, Y+30	; 0x1e
    2c66:	9f 8d       	ldd	r25, Y+31	; 0x1f

00002c68 <.L1^B9>:
    2c68:	01 97       	sbiw	r24, 0x01	; 1
    2c6a:	f1 f7       	brne	.-4      	; 0x2c68 <.L1^B9>
    2c6c:	9f 8f       	std	Y+31, r25	; 0x1f
    2c6e:	8e 8f       	std	Y+30, r24	; 0x1e

00002c70 <.Loc.161>:
	...

00002c72 <.LBE86>:
			__ticks --;
    2c72:	8c 8d       	ldd	r24, Y+28	; 0x1c
    2c74:	9d 8d       	ldd	r25, Y+29	; 0x1d
    2c76:	01 97       	sbiw	r24, 0x01	; 1
    2c78:	9d 8f       	std	Y+29, r25	; 0x1d
    2c7a:	8c 8f       	std	Y+28, r24	; 0x1c

00002c7c <.L79>:
		while(__ticks)
    2c7c:	8c 8d       	ldd	r24, Y+28	; 0x1c
    2c7e:	9d 8d       	ldd	r25, Y+29	; 0x1d
    2c80:	00 97       	sbiw	r24, 0x00	; 0
    2c82:	61 f7       	brne	.-40     	; 0x2c5c <.L80>

00002c84 <.Loc.164>:
		return;
    2c84:	58 c0       	rjmp	.+176    	; 0x2d36 <.L71>

00002c86 <.L98>:
		__ticks = (uint16_t)__tmp;
    2c86:	68 8d       	ldd	r22, Y+24	; 0x18
    2c88:	79 8d       	ldd	r23, Y+25	; 0x19
    2c8a:	8a 8d       	ldd	r24, Y+26	; 0x1a
    2c8c:	9b 8d       	ldd	r25, Y+27	; 0x1b
    2c8e:	0e 94 31 18 	call	0x3062	; 0x3062 <__fixunssfsi>
    2c92:	63 96       	adiw	r28, 0x13	; 19
    2c94:	6c af       	std	Y+60, r22	; 0x3c
    2c96:	7d af       	std	Y+61, r23	; 0x3d
    2c98:	8e af       	std	Y+62, r24	; 0x3e
    2c9a:	9f af       	std	Y+63, r25	; 0x3f
    2c9c:	63 97       	sbiw	r28, 0x13	; 19
    2c9e:	61 96       	adiw	r28, 0x11	; 17
    2ca0:	ee ad       	ldd	r30, Y+62	; 0x3e
    2ca2:	ff ad       	ldd	r31, Y+63	; 0x3f
    2ca4:	61 97       	sbiw	r28, 0x11	; 17
    2ca6:	fd 8f       	std	Y+29, r31	; 0x1d
    2ca8:	ec 8f       	std	Y+28, r30	; 0x1c

00002caa <.L76>:
    2caa:	8c 8d       	ldd	r24, Y+28	; 0x1c
    2cac:	9d 8d       	ldd	r25, Y+29	; 0x1d
    2cae:	99 a3       	std	Y+33, r25	; 0x21
    2cb0:	88 a3       	std	Y+32, r24	; 0x20

00002cb2 <.LBB88>:
    2cb2:	88 a1       	ldd	r24, Y+32	; 0x20
    2cb4:	99 a1       	ldd	r25, Y+33	; 0x21

00002cb6 <.L1^B10>:
    2cb6:	01 97       	sbiw	r24, 0x01	; 1
    2cb8:	f1 f7       	brne	.-4      	; 0x2cb6 <.L1^B10>
    2cba:	99 a3       	std	Y+33, r25	; 0x21
    2cbc:	88 a3       	std	Y+32, r24	; 0x20

00002cbe <.Loc.167>:
}
    2cbe:	3b c0       	rjmp	.+118    	; 0x2d36 <.L71>

00002cc0 <.L96>:
	else if (__tmp > 255)
    2cc0:	20 e0       	ldi	r18, 0x00	; 0
    2cc2:	30 e0       	ldi	r19, 0x00	; 0
    2cc4:	4f e7       	ldi	r20, 0x7F	; 127
    2cc6:	53 e4       	ldi	r21, 0x43	; 67
    2cc8:	6b 85       	ldd	r22, Y+11	; 0x0b
    2cca:	7c 85       	ldd	r23, Y+12	; 0x0c
    2ccc:	8d 85       	ldd	r24, Y+13	; 0x0d
    2cce:	9e 85       	ldd	r25, Y+14	; 0x0e
    2cd0:	0e 94 12 19 	call	0x3224	; 0x3224 <__gesf2>
    2cd4:	88 23       	and	r24, r24
    2cd6:	f9 f0       	breq	.+62     	; 0x2d16 <.L99>
    2cd8:	f4 f0       	brlt	.+60     	; 0x2d16 <.L99>

00002cda <.LBB90>:
		uint16_t __ticks=(uint16_t)__tmp2;
    2cda:	6f 85       	ldd	r22, Y+15	; 0x0f
    2cdc:	78 89       	ldd	r23, Y+16	; 0x10
    2cde:	89 89       	ldd	r24, Y+17	; 0x11
    2ce0:	9a 89       	ldd	r25, Y+18	; 0x12
    2ce2:	0e 94 31 18 	call	0x3062	; 0x3062 <__fixunssfsi>
    2ce6:	67 96       	adiw	r28, 0x17	; 23
    2ce8:	6c af       	std	Y+60, r22	; 0x3c
    2cea:	7d af       	std	Y+61, r23	; 0x3d
    2cec:	8e af       	std	Y+62, r24	; 0x3e
    2cee:	9f af       	std	Y+63, r25	; 0x3f
    2cf0:	67 97       	sbiw	r28, 0x17	; 23
    2cf2:	65 96       	adiw	r28, 0x15	; 21
    2cf4:	2e ad       	ldd	r18, Y+62	; 0x3e
    2cf6:	3f ad       	ldd	r19, Y+63	; 0x3f
    2cf8:	65 97       	sbiw	r28, 0x15	; 21
    2cfa:	3b a3       	std	Y+35, r19	; 0x23
    2cfc:	2a a3       	std	Y+34, r18	; 0x22
    2cfe:	8a a1       	ldd	r24, Y+34	; 0x22
    2d00:	9b a1       	ldd	r25, Y+35	; 0x23
    2d02:	9d a3       	std	Y+37, r25	; 0x25
    2d04:	8c a3       	std	Y+36, r24	; 0x24

00002d06 <.LBB91>:
	__asm__ volatile (
    2d06:	8c a1       	ldd	r24, Y+36	; 0x24
    2d08:	9d a1       	ldd	r25, Y+37	; 0x25

00002d0a <.L1^B11>:
    2d0a:	01 97       	sbiw	r24, 0x01	; 1
    2d0c:	f1 f7       	brne	.-4      	; 0x2d0a <.L1^B11>
    2d0e:	9d a3       	std	Y+37, r25	; 0x25
    2d10:	8c a3       	std	Y+36, r24	; 0x24

00002d12 <.Loc.171>:
	...

00002d14 <.LBE91>:
		return;
    2d14:	17 c0       	rjmp	.+46     	; 0x2d44 <.L84>

00002d16 <.L99>:
		__ticks = (uint8_t)__tmp;
    2d16:	6b 85       	ldd	r22, Y+11	; 0x0b
    2d18:	7c 85       	ldd	r23, Y+12	; 0x0c
    2d1a:	8d 85       	ldd	r24, Y+13	; 0x0d
    2d1c:	9e 85       	ldd	r25, Y+14	; 0x0e
    2d1e:	0e 94 31 18 	call	0x3062	; 0x3062 <__fixunssfsi>
    2d22:	6b 96       	adiw	r28, 0x1b	; 27
    2d24:	6c af       	std	Y+60, r22	; 0x3c
    2d26:	7d af       	std	Y+61, r23	; 0x3d
    2d28:	8e af       	std	Y+62, r24	; 0x3e
    2d2a:	9f af       	std	Y+63, r25	; 0x3f
    2d2c:	6b 97       	sbiw	r28, 0x1b	; 27
    2d2e:	68 96       	adiw	r28, 0x18	; 24
    2d30:	3f ad       	ldd	r19, Y+63	; 0x3f
    2d32:	68 97       	sbiw	r28, 0x18	; 24
    2d34:	3b 8b       	std	Y+19, r19	; 0x13

00002d36 <.L71>:
    2d36:	8b 89       	ldd	r24, Y+19	; 0x13
    2d38:	8e a3       	std	Y+38, r24	; 0x26

00002d3a <.LBB93>:
	__asm__ volatile (
    2d3a:	8e a1       	ldd	r24, Y+38	; 0x26

00002d3c <.L1^B12>:
    2d3c:	8a 95       	dec	r24
    2d3e:	f1 f7       	brne	.-4      	; 0x2d3c <.L1^B12>
    2d40:	8e a3       	std	Y+38, r24	; 0x26

00002d42 <.Loc.175>:
	...

00002d44 <.L84>:
    _delay_us(10);
    PORTH &= ~(1 << US3_TRIG_PIN);
    2d44:	82 e0       	ldi	r24, 0x02	; 2
    2d46:	91 e0       	ldi	r25, 0x01	; 1
    2d48:	dc 01       	movw	r26, r24
    2d4a:	2c 91       	ld	r18, X

00002d4c <.Loc.177>:
    2d4c:	82 e0       	ldi	r24, 0x02	; 2
    2d4e:	91 e0       	ldi	r25, 0x01	; 1

00002d50 <.Loc.178>:
    2d50:	2f 7e       	andi	r18, 0xEF	; 239
    2d52:	fc 01       	movw	r30, r24
    2d54:	20 83       	st	Z, r18

00002d56 <.Loc.179>:
	...

00002d58 <.L85>:

    // Wait for echo pin to go high
    while (!(PINH & (1 << US3_ECHO_PIN)));
    2d58:	80 e0       	ldi	r24, 0x00	; 0
    2d5a:	91 e0       	ldi	r25, 0x01	; 1
    2d5c:	dc 01       	movw	r26, r24
    2d5e:	8c 91       	ld	r24, X

00002d60 <.Loc.181>:
    2d60:	88 2f       	mov	r24, r24
    2d62:	90 e0       	ldi	r25, 0x00	; 0
    2d64:	80 72       	andi	r24, 0x20	; 32
    2d66:	99 27       	eor	r25, r25

00002d68 <.Loc.182>:
    2d68:	00 97       	sbiw	r24, 0x00	; 0
    2d6a:	b1 f3       	breq	.-20     	; 0x2d58 <.L85>

00002d6c <.Loc.183>:

    // Start timer
    TCNT1 = 0;
    2d6c:	84 e8       	ldi	r24, 0x84	; 132
    2d6e:	90 e0       	ldi	r25, 0x00	; 0

00002d70 <.Loc.184>:
    2d70:	fc 01       	movw	r30, r24
    2d72:	11 82       	std	Z+1, r1	; 0x01
    2d74:	10 82       	st	Z, r1

00002d76 <.Loc.185>:
    TCCR1B |= (1 << CS11); // Prescaler of 8
    2d76:	81 e8       	ldi	r24, 0x81	; 129
    2d78:	90 e0       	ldi	r25, 0x00	; 0
    2d7a:	dc 01       	movw	r26, r24
    2d7c:	2c 91       	ld	r18, X
    2d7e:	81 e8       	ldi	r24, 0x81	; 129
    2d80:	90 e0       	ldi	r25, 0x00	; 0

00002d82 <.Loc.186>:
    2d82:	22 60       	ori	r18, 0x02	; 2
    2d84:	fc 01       	movw	r30, r24
    2d86:	20 83       	st	Z, r18

00002d88 <.Loc.187>:

    // Wait for echo pin to go low
    while (PINH & (1 << US3_ECHO_PIN)) {
    2d88:	0b c0       	rjmp	.+22     	; 0x2da0 <.L86>

00002d8a <.L88>:
        if (TCNT1 > 60000) {
    2d8a:	84 e8       	ldi	r24, 0x84	; 132
    2d8c:	90 e0       	ldi	r25, 0x00	; 0
    2d8e:	dc 01       	movw	r26, r24
    2d90:	8d 91       	ld	r24, X+
    2d92:	9c 91       	ld	r25, X
    2d94:	11 97       	sbiw	r26, 0x01	; 1

00002d96 <.Loc.189>:
    2d96:	80 36       	cpi	r24, 0x60	; 96
    2d98:	ba ee       	ldi	r27, 0xEA	; 234
    2d9a:	9b 07       	cpc	r25, r27
    2d9c:	09 f0       	breq	.+2      	; 0x2da0 <.L86>

00002d9e <L0^A>:
    2d9e:	58 f4       	brcc	.+22     	; 0x2db6 <.L100>

00002da0 <.L86>:
    while (PINH & (1 << US3_ECHO_PIN)) {
    2da0:	80 e0       	ldi	r24, 0x00	; 0
    2da2:	91 e0       	ldi	r25, 0x01	; 1
    2da4:	fc 01       	movw	r30, r24
    2da6:	80 81       	ld	r24, Z

00002da8 <.Loc.191>:
    2da8:	88 2f       	mov	r24, r24
    2daa:	90 e0       	ldi	r25, 0x00	; 0
    2dac:	80 72       	andi	r24, 0x20	; 32
    2dae:	99 27       	eor	r25, r25

00002db0 <.Loc.192>:
    2db0:	00 97       	sbiw	r24, 0x00	; 0
    2db2:	59 f7       	brne	.-42     	; 0x2d8a <.L88>
    2db4:	01 c0       	rjmp	.+2      	; 0x2db8 <.L87>

00002db6 <.L100>:
	...

00002db8 <.L87>:
            break;
        }
    }

    // Stop timer
    TCCR1B &= ~(1 << CS11);
    2db8:	81 e8       	ldi	r24, 0x81	; 129
    2dba:	90 e0       	ldi	r25, 0x00	; 0
    2dbc:	dc 01       	movw	r26, r24
    2dbe:	2c 91       	ld	r18, X

00002dc0 <.Loc.195>:
    2dc0:	81 e8       	ldi	r24, 0x81	; 129
    2dc2:	90 e0       	ldi	r25, 0x00	; 0

00002dc4 <.Loc.196>:
    2dc4:	2d 7f       	andi	r18, 0xFD	; 253
    2dc6:	fc 01       	movw	r30, r24
    2dc8:	20 83       	st	Z, r18

00002dca <.Loc.197>:

    // Read timer value
    duration = TCNT1;
    2dca:	84 e8       	ldi	r24, 0x84	; 132
    2dcc:	90 e0       	ldi	r25, 0x00	; 0

00002dce <.Loc.198>:
    2dce:	dc 01       	movw	r26, r24
    2dd0:	8d 91       	ld	r24, X+
    2dd2:	9c 91       	ld	r25, X
    2dd4:	9a 83       	std	Y+2, r25	; 0x02
    2dd6:	89 83       	std	Y+1, r24	; 0x01

00002dd8 <.Loc.199>:

    // Convert duration to distance in cm
    float distance = duration / 58.0 / 2.0;
    2dd8:	89 81       	ldd	r24, Y+1	; 0x01
    2dda:	9a 81       	ldd	r25, Y+2	; 0x02
    2ddc:	9c 01       	movw	r18, r24
    2dde:	40 e0       	ldi	r20, 0x00	; 0
    2de0:	50 e0       	ldi	r21, 0x00	; 0
    2de2:	6f 96       	adiw	r28, 0x1f	; 31
    2de4:	2c af       	std	Y+60, r18	; 0x3c
    2de6:	3d af       	std	Y+61, r19	; 0x3d
    2de8:	4e af       	std	Y+62, r20	; 0x3e
    2dea:	5f af       	std	Y+63, r21	; 0x3f
    2dec:	6f 97       	sbiw	r28, 0x1f	; 31
    2dee:	6f 96       	adiw	r28, 0x1f	; 31
    2df0:	6c ad       	ldd	r22, Y+60	; 0x3c
    2df2:	7d ad       	ldd	r23, Y+61	; 0x3d
    2df4:	8e ad       	ldd	r24, Y+62	; 0x3e
    2df6:	9f ad       	ldd	r25, Y+63	; 0x3f
    2df8:	6f 97       	sbiw	r28, 0x1f	; 31
    2dfa:	0e 94 60 18 	call	0x30c0	; 0x30c0 <__floatunsisf>
    2dfe:	6f a3       	std	Y+39, r22	; 0x27
    2e00:	78 a7       	std	Y+40, r23	; 0x28
    2e02:	89 a7       	std	Y+41, r24	; 0x29
    2e04:	9a a7       	std	Y+42, r25	; 0x2a
    2e06:	20 e0       	ldi	r18, 0x00	; 0
    2e08:	30 e0       	ldi	r19, 0x00	; 0
    2e0a:	48 e6       	ldi	r20, 0x68	; 104
    2e0c:	52 e4       	ldi	r21, 0x42	; 66
    2e0e:	6f a1       	ldd	r22, Y+39	; 0x27
    2e10:	78 a5       	ldd	r23, Y+40	; 0x28
    2e12:	89 a5       	ldd	r24, Y+41	; 0x29
    2e14:	9a a5       	ldd	r25, Y+42	; 0x2a
    2e16:	0e 94 bf 17 	call	0x2f7e	; 0x2f7e <__divsf3>
    2e1a:	a3 96       	adiw	r28, 0x23	; 35
    2e1c:	6c af       	std	Y+60, r22	; 0x3c
    2e1e:	7d af       	std	Y+61, r23	; 0x3d
    2e20:	8e af       	std	Y+62, r24	; 0x3e
    2e22:	9f af       	std	Y+63, r25	; 0x3f
    2e24:	a3 97       	sbiw	r28, 0x23	; 35
    2e26:	a3 96       	adiw	r28, 0x23	; 35
    2e28:	8c ad       	ldd	r24, Y+60	; 0x3c
    2e2a:	9d ad       	ldd	r25, Y+61	; 0x3d
    2e2c:	ae ad       	ldd	r26, Y+62	; 0x3e
    2e2e:	bf ad       	ldd	r27, Y+63	; 0x3f
    2e30:	a3 97       	sbiw	r28, 0x23	; 35
    2e32:	8b a7       	std	Y+43, r24	; 0x2b
    2e34:	9c a7       	std	Y+44, r25	; 0x2c
    2e36:	ad a7       	std	Y+45, r26	; 0x2d
    2e38:	be a7       	std	Y+46, r27	; 0x2e

00002e3a <.Loc.200>:
    2e3a:	20 e0       	ldi	r18, 0x00	; 0
    2e3c:	30 e0       	ldi	r19, 0x00	; 0
    2e3e:	40 e0       	ldi	r20, 0x00	; 0
    2e40:	50 e4       	ldi	r21, 0x40	; 64
    2e42:	6b a5       	ldd	r22, Y+43	; 0x2b
    2e44:	7c a5       	ldd	r23, Y+44	; 0x2c
    2e46:	8d a5       	ldd	r24, Y+45	; 0x2d
    2e48:	9e a5       	ldd	r25, Y+46	; 0x2e
    2e4a:	0e 94 bf 17 	call	0x2f7e	; 0x2f7e <__divsf3>
    2e4e:	a7 96       	adiw	r28, 0x27	; 39
    2e50:	6c af       	std	Y+60, r22	; 0x3c
    2e52:	7d af       	std	Y+61, r23	; 0x3d
    2e54:	8e af       	std	Y+62, r24	; 0x3e
    2e56:	9f af       	std	Y+63, r25	; 0x3f
    2e58:	a7 97       	sbiw	r28, 0x27	; 39
    2e5a:	a7 96       	adiw	r28, 0x27	; 39
    2e5c:	2c ad       	ldd	r18, Y+60	; 0x3c
    2e5e:	3d ad       	ldd	r19, Y+61	; 0x3d
    2e60:	4e ad       	ldd	r20, Y+62	; 0x3e
    2e62:	5f ad       	ldd	r21, Y+63	; 0x3f
    2e64:	a7 97       	sbiw	r28, 0x27	; 39
    2e66:	2b 83       	std	Y+3, r18	; 0x03
    2e68:	3c 83       	std	Y+4, r19	; 0x04
    2e6a:	4d 83       	std	Y+5, r20	; 0x05
    2e6c:	5e 83       	std	Y+6, r21	; 0x06

00002e6e <.Loc.201>:

    return distance;
    2e6e:	8b 81       	ldd	r24, Y+3	; 0x03
    2e70:	9c 81       	ldd	r25, Y+4	; 0x04
    2e72:	ad 81       	ldd	r26, Y+5	; 0x05
    2e74:	be 81       	ldd	r27, Y+6	; 0x06
    2e76:	8b ab       	std	Y+51, r24	; 0x33
    2e78:	9c ab       	std	Y+52, r25	; 0x34
    2e7a:	ad ab       	std	Y+53, r26	; 0x35
    2e7c:	be ab       	std	Y+54, r27	; 0x36

00002e7e <.Loc.202>:
}
    2e7e:	6b a9       	ldd	r22, Y+51	; 0x33
    2e80:	7c a9       	ldd	r23, Y+52	; 0x34
    2e82:	8d a9       	ldd	r24, Y+53	; 0x35
    2e84:	9e a9       	ldd	r25, Y+54	; 0x36
    2e86:	ca 59       	subi	r28, 0x9A	; 154
    2e88:	df 4f       	sbci	r29, 0xFF	; 255
    2e8a:	0f b6       	in	r0, 0x3f	; 63
    2e8c:	f8 94       	cli
    2e8e:	de bf       	out	0x3e, r29	; 62
    2e90:	0f be       	out	0x3f, r0	; 63
    2e92:	cd bf       	out	0x3d, r28	; 61
    2e94:	df 91       	pop	r29
    2e96:	cf 91       	pop	r28
    2e98:	08 95       	ret

00002e9a <__subsf3>:
    2e9a:	50 58       	subi	r21, 0x80	; 128

00002e9c <__addsf3>:
    2e9c:	bb 27       	eor	r27, r27
    2e9e:	aa 27       	eor	r26, r26
    2ea0:	0e 94 65 17 	call	0x2eca	; 0x2eca <__addsf3x>
    2ea4:	0c 94 d8 18 	jmp	0x31b0	; 0x31b0 <__fp_round>

00002ea8 <.L^B1>:
    2ea8:	0e 94 ca 18 	call	0x3194	; 0x3194 <__fp_pscA>
    2eac:	38 f0       	brcs	.+14     	; 0x2ebc <.L_nan>
    2eae:	0e 94 d1 18 	call	0x31a2	; 0x31a2 <__fp_pscB>
    2eb2:	20 f0       	brcs	.+8      	; 0x2ebc <.L_nan>
    2eb4:	39 f4       	brne	.+14     	; 0x2ec4 <.L_inf>
    2eb6:	9f 3f       	cpi	r25, 0xFF	; 255
    2eb8:	19 f4       	brne	.+6      	; 0x2ec0 <.L_infB>
    2eba:	26 f4       	brtc	.+8      	; 0x2ec4 <.L_inf>

00002ebc <.L_nan>:
    2ebc:	0c 94 c7 18 	jmp	0x318e	; 0x318e <__fp_nan>

00002ec0 <.L_infB>:
    2ec0:	0e f4       	brtc	.+2      	; 0x2ec4 <.L_inf>
    2ec2:	e0 95       	com	r30

00002ec4 <.L_inf>:
    2ec4:	e7 fb       	bst	r30, 7
    2ec6:	0c 94 c1 18 	jmp	0x3182	; 0x3182 <__fp_inf>

00002eca <__addsf3x>:
    2eca:	e9 2f       	mov	r30, r25
    2ecc:	0e 94 e9 18 	call	0x31d2	; 0x31d2 <__fp_split3>
    2ed0:	58 f3       	brcs	.-42     	; 0x2ea8 <.L^B1>
    2ed2:	ba 17       	cp	r27, r26
    2ed4:	62 07       	cpc	r22, r18
    2ed6:	73 07       	cpc	r23, r19
    2ed8:	84 07       	cpc	r24, r20
    2eda:	95 07       	cpc	r25, r21
    2edc:	20 f0       	brcs	.+8      	; 0x2ee6 <.L2^B1>
    2ede:	79 f4       	brne	.+30     	; 0x2efe <.L4^B1>
    2ee0:	a6 f5       	brtc	.+104    	; 0x2f4a <.L_add>
    2ee2:	0c 94 0b 19 	jmp	0x3216	; 0x3216 <__fp_zero>

00002ee6 <.L2^B1>:
    2ee6:	0e f4       	brtc	.+2      	; 0x2eea <.L3^B1>
    2ee8:	e0 95       	com	r30

00002eea <.L3^B1>:
    2eea:	0b 2e       	mov	r0, r27
    2eec:	ba 2f       	mov	r27, r26
    2eee:	a0 2d       	mov	r26, r0
    2ef0:	0b 01       	movw	r0, r22
    2ef2:	b9 01       	movw	r22, r18
    2ef4:	90 01       	movw	r18, r0
    2ef6:	0c 01       	movw	r0, r24
    2ef8:	ca 01       	movw	r24, r20
    2efa:	a0 01       	movw	r20, r0
    2efc:	11 24       	eor	r1, r1

00002efe <.L4^B1>:
    2efe:	ff 27       	eor	r31, r31
    2f00:	59 1b       	sub	r21, r25

00002f02 <.L5^B1>:
    2f02:	99 f0       	breq	.+38     	; 0x2f2a <.L7^B1>
    2f04:	59 3f       	cpi	r21, 0xF9	; 249
    2f06:	50 f4       	brcc	.+20     	; 0x2f1c <.L6^B1>
    2f08:	50 3e       	cpi	r21, 0xE0	; 224
    2f0a:	68 f1       	brcs	.+90     	; 0x2f66 <.L_ret>
    2f0c:	1a 16       	cp	r1, r26
    2f0e:	f0 40       	sbci	r31, 0x00	; 0
    2f10:	a2 2f       	mov	r26, r18
    2f12:	23 2f       	mov	r18, r19
    2f14:	34 2f       	mov	r19, r20
    2f16:	44 27       	eor	r20, r20
    2f18:	58 5f       	subi	r21, 0xF8	; 248
    2f1a:	f3 cf       	rjmp	.-26     	; 0x2f02 <.L5^B1>

00002f1c <.L6^B1>:
    2f1c:	46 95       	lsr	r20
    2f1e:	37 95       	ror	r19
    2f20:	27 95       	ror	r18
    2f22:	a7 95       	ror	r26
    2f24:	f0 40       	sbci	r31, 0x00	; 0
    2f26:	53 95       	inc	r21
    2f28:	c9 f7       	brne	.-14     	; 0x2f1c <.L6^B1>

00002f2a <.L7^B1>:
    2f2a:	7e f4       	brtc	.+30     	; 0x2f4a <.L_add>
    2f2c:	1f 16       	cp	r1, r31
    2f2e:	ba 0b       	sbc	r27, r26
    2f30:	62 0b       	sbc	r22, r18
    2f32:	73 0b       	sbc	r23, r19
    2f34:	84 0b       	sbc	r24, r20
    2f36:	ba f0       	brmi	.+46     	; 0x2f66 <.L_ret>

00002f38 <.L8^B1>:
    2f38:	91 50       	subi	r25, 0x01	; 1
    2f3a:	a1 f0       	breq	.+40     	; 0x2f64 <.L9^B1>
    2f3c:	ff 0f       	add	r31, r31
    2f3e:	bb 1f       	adc	r27, r27
    2f40:	66 1f       	adc	r22, r22
    2f42:	77 1f       	adc	r23, r23
    2f44:	88 1f       	adc	r24, r24
    2f46:	c2 f7       	brpl	.-16     	; 0x2f38 <.L8^B1>
    2f48:	0e c0       	rjmp	.+28     	; 0x2f66 <.L_ret>

00002f4a <.L_add>:
    2f4a:	ba 0f       	add	r27, r26
    2f4c:	62 1f       	adc	r22, r18
    2f4e:	73 1f       	adc	r23, r19
    2f50:	84 1f       	adc	r24, r20
    2f52:	48 f4       	brcc	.+18     	; 0x2f66 <.L_ret>
    2f54:	87 95       	ror	r24
    2f56:	77 95       	ror	r23
    2f58:	67 95       	ror	r22
    2f5a:	b7 95       	ror	r27
    2f5c:	f7 95       	ror	r31
    2f5e:	9e 3f       	cpi	r25, 0xFE	; 254
    2f60:	08 f0       	brcs	.+2      	; 0x2f64 <.L9^B1>
    2f62:	b0 cf       	rjmp	.-160    	; 0x2ec4 <.L_inf>

00002f64 <.L9^B1>:
    2f64:	93 95       	inc	r25

00002f66 <.L_ret>:
    2f66:	88 0f       	add	r24, r24
    2f68:	08 f0       	brcs	.+2      	; 0x2f6c <.L1^B1>
    2f6a:	99 27       	eor	r25, r25

00002f6c <.L1^B1>:
    2f6c:	ee 0f       	add	r30, r30
    2f6e:	97 95       	ror	r25
    2f70:	87 95       	ror	r24
    2f72:	08 95       	ret

00002f74 <__cmpsf2>:
    2f74:	0e 94 9d 18 	call	0x313a	; 0x313a <__fp_cmp>
    2f78:	08 f4       	brcc	.+2      	; 0x2f7c <.L1^B1>
    2f7a:	81 e0       	ldi	r24, 0x01	; 1

00002f7c <.L1^B1>:
    2f7c:	08 95       	ret

00002f7e <__divsf3>:
    2f7e:	0e 94 d3 17 	call	0x2fa6	; 0x2fa6 <__divsf3x>
    2f82:	0c 94 d8 18 	jmp	0x31b0	; 0x31b0 <__fp_round>

00002f86 <.L^B1>:
    2f86:	0e 94 d1 18 	call	0x31a2	; 0x31a2 <__fp_pscB>
    2f8a:	58 f0       	brcs	.+22     	; 0x2fa2 <.L_nan>
    2f8c:	0e 94 ca 18 	call	0x3194	; 0x3194 <__fp_pscA>
    2f90:	40 f0       	brcs	.+16     	; 0x2fa2 <.L_nan>
    2f92:	29 f4       	brne	.+10     	; 0x2f9e <.L_zr>
    2f94:	5f 3f       	cpi	r21, 0xFF	; 255
    2f96:	29 f0       	breq	.+10     	; 0x2fa2 <.L_nan>

00002f98 <.L_inf>:
    2f98:	0c 94 c1 18 	jmp	0x3182	; 0x3182 <__fp_inf>

00002f9c <.L1^B1>:
    2f9c:	51 11       	cpse	r21, r1

00002f9e <.L_zr>:
    2f9e:	0c 94 0c 19 	jmp	0x3218	; 0x3218 <__fp_szero>

00002fa2 <.L_nan>:
    2fa2:	0c 94 c7 18 	jmp	0x318e	; 0x318e <__fp_nan>

00002fa6 <__divsf3x>:
    2fa6:	0e 94 e9 18 	call	0x31d2	; 0x31d2 <__fp_split3>
    2faa:	68 f3       	brcs	.-38     	; 0x2f86 <.L^B1>

00002fac <__divsf3_pse>:
    2fac:	99 23       	and	r25, r25
    2fae:	b1 f3       	breq	.-20     	; 0x2f9c <.L1^B1>
    2fb0:	55 23       	and	r21, r21
    2fb2:	91 f3       	breq	.-28     	; 0x2f98 <.L_inf>
    2fb4:	95 1b       	sub	r25, r21
    2fb6:	55 0b       	sbc	r21, r21
    2fb8:	bb 27       	eor	r27, r27
    2fba:	aa 27       	eor	r26, r26

00002fbc <.L2^B1>:
    2fbc:	62 17       	cp	r22, r18
    2fbe:	73 07       	cpc	r23, r19
    2fc0:	84 07       	cpc	r24, r20
    2fc2:	38 f0       	brcs	.+14     	; 0x2fd2 <.L3^B1>
    2fc4:	9f 5f       	subi	r25, 0xFF	; 255
    2fc6:	5f 4f       	sbci	r21, 0xFF	; 255
    2fc8:	22 0f       	add	r18, r18
    2fca:	33 1f       	adc	r19, r19
    2fcc:	44 1f       	adc	r20, r20
    2fce:	aa 1f       	adc	r26, r26
    2fd0:	a9 f3       	breq	.-22     	; 0x2fbc <.L2^B1>

00002fd2 <.L3^B1>:
    2fd2:	35 d0       	rcall	.+106    	; 0x303e <.L_div>
    2fd4:	0e 2e       	mov	r0, r30
    2fd6:	3a f0       	brmi	.+14     	; 0x2fe6 <.L5^B1>

00002fd8 <.L4^B1>:
    2fd8:	e0 e8       	ldi	r30, 0x80	; 128
    2fda:	32 d0       	rcall	.+100    	; 0x3040 <.L_div1>
    2fdc:	91 50       	subi	r25, 0x01	; 1
    2fde:	50 40       	sbci	r21, 0x00	; 0
    2fe0:	e6 95       	lsr	r30
    2fe2:	00 1c       	adc	r0, r0
    2fe4:	ca f7       	brpl	.-14     	; 0x2fd8 <.L4^B1>

00002fe6 <.L5^B1>:
    2fe6:	2b d0       	rcall	.+86     	; 0x303e <.L_div>
    2fe8:	fe 2f       	mov	r31, r30
    2fea:	29 d0       	rcall	.+82     	; 0x303e <.L_div>
    2fec:	66 0f       	add	r22, r22
    2fee:	77 1f       	adc	r23, r23
    2ff0:	88 1f       	adc	r24, r24
    2ff2:	bb 1f       	adc	r27, r27
    2ff4:	26 17       	cp	r18, r22
    2ff6:	37 07       	cpc	r19, r23
    2ff8:	48 07       	cpc	r20, r24
    2ffa:	ab 07       	cpc	r26, r27
    2ffc:	b0 e8       	ldi	r27, 0x80	; 128
    2ffe:	09 f0       	breq	.+2      	; 0x3002 <.L4^B2>
    3000:	bb 0b       	sbc	r27, r27

00003002 <.L4^B2>:
    3002:	80 2d       	mov	r24, r0
    3004:	bf 01       	movw	r22, r30
    3006:	ff 27       	eor	r31, r31
    3008:	93 58       	subi	r25, 0x83	; 131
    300a:	5f 4f       	sbci	r21, 0xFF	; 255
    300c:	3a f0       	brmi	.+14     	; 0x301c <.L13^B1>
    300e:	9e 3f       	cpi	r25, 0xFE	; 254
    3010:	51 05       	cpc	r21, r1
    3012:	78 f0       	brcs	.+30     	; 0x3032 <.L15^B1>
    3014:	0c 94 c1 18 	jmp	0x3182	; 0x3182 <__fp_inf>

00003018 <.L12^B1>:
    3018:	0c 94 0c 19 	jmp	0x3218	; 0x3218 <__fp_szero>

0000301c <.L13^B1>:
    301c:	5f 3f       	cpi	r21, 0xFF	; 255
    301e:	e4 f3       	brlt	.-8      	; 0x3018 <.L12^B1>
    3020:	98 3e       	cpi	r25, 0xE8	; 232
    3022:	d4 f3       	brlt	.-12     	; 0x3018 <.L12^B1>

00003024 <.L14^B1>:
    3024:	86 95       	lsr	r24
    3026:	77 95       	ror	r23
    3028:	67 95       	ror	r22
    302a:	b7 95       	ror	r27
    302c:	f7 95       	ror	r31
    302e:	9f 5f       	subi	r25, 0xFF	; 255
    3030:	c9 f7       	brne	.-14     	; 0x3024 <.L14^B1>

00003032 <.L15^B1>:
    3032:	88 0f       	add	r24, r24
    3034:	91 1d       	adc	r25, r1
    3036:	96 95       	lsr	r25
    3038:	87 95       	ror	r24
    303a:	97 f9       	bld	r25, 7
    303c:	08 95       	ret

0000303e <.L_div>:
    303e:	e1 e0       	ldi	r30, 0x01	; 1

00003040 <.L_div1>:
    3040:	66 0f       	add	r22, r22
    3042:	77 1f       	adc	r23, r23
    3044:	88 1f       	adc	r24, r24
    3046:	bb 1f       	adc	r27, r27
    3048:	62 17       	cp	r22, r18
    304a:	73 07       	cpc	r23, r19
    304c:	84 07       	cpc	r24, r20
    304e:	ba 07       	cpc	r27, r26
    3050:	20 f0       	brcs	.+8      	; 0x305a <.L2^B2>
    3052:	62 1b       	sub	r22, r18
    3054:	73 0b       	sbc	r23, r19
    3056:	84 0b       	sbc	r24, r20
    3058:	ba 0b       	sbc	r27, r26

0000305a <.L2^B2>:
    305a:	ee 1f       	adc	r30, r30
    305c:	88 f7       	brcc	.-30     	; 0x3040 <.L_div1>
    305e:	e0 95       	com	r30
    3060:	08 95       	ret

00003062 <__fixunssfsi>:
    3062:	0e 94 f1 18 	call	0x31e2	; 0x31e2 <__fp_splitA>
    3066:	88 f0       	brcs	.+34     	; 0x308a <.L_err>
    3068:	9f 57       	subi	r25, 0x7F	; 127
    306a:	98 f0       	brcs	.+38     	; 0x3092 <.L_zr>
    306c:	b9 2f       	mov	r27, r25
    306e:	99 27       	eor	r25, r25
    3070:	b7 51       	subi	r27, 0x17	; 23
    3072:	b0 f0       	brcs	.+44     	; 0x30a0 <.L4^B1>
    3074:	e1 f0       	breq	.+56     	; 0x30ae <.L_sign>

00003076 <.L1^B1>:
    3076:	66 0f       	add	r22, r22
    3078:	77 1f       	adc	r23, r23
    307a:	88 1f       	adc	r24, r24
    307c:	99 1f       	adc	r25, r25
    307e:	1a f0       	brmi	.+6      	; 0x3086 <.L2^B1>
    3080:	ba 95       	dec	r27
    3082:	c9 f7       	brne	.-14     	; 0x3076 <.L1^B1>
    3084:	14 c0       	rjmp	.+40     	; 0x30ae <.L_sign>

00003086 <.L2^B1>:
    3086:	b1 30       	cpi	r27, 0x01	; 1
    3088:	91 f0       	breq	.+36     	; 0x30ae <.L_sign>

0000308a <.L_err>:
    308a:	0e 94 0b 19 	call	0x3216	; 0x3216 <__fp_zero>
    308e:	b1 e0       	ldi	r27, 0x01	; 1
    3090:	08 95       	ret

00003092 <.L_zr>:
    3092:	0c 94 0b 19 	jmp	0x3216	; 0x3216 <__fp_zero>

00003096 <.L3^B1>:
    3096:	67 2f       	mov	r22, r23
    3098:	78 2f       	mov	r23, r24
    309a:	88 27       	eor	r24, r24
    309c:	b8 5f       	subi	r27, 0xF8	; 248
    309e:	39 f0       	breq	.+14     	; 0x30ae <.L_sign>

000030a0 <.L4^B1>:
    30a0:	b9 3f       	cpi	r27, 0xF9	; 249
    30a2:	cc f3       	brlt	.-14     	; 0x3096 <.L3^B1>

000030a4 <.L5^B1>:
    30a4:	86 95       	lsr	r24
    30a6:	77 95       	ror	r23
    30a8:	67 95       	ror	r22
    30aa:	b3 95       	inc	r27
    30ac:	d9 f7       	brne	.-10     	; 0x30a4 <.L5^B1>

000030ae <.L_sign>:
    30ae:	3e f4       	brtc	.+14     	; 0x30be <.L6^B1>
    30b0:	90 95       	com	r25
    30b2:	80 95       	com	r24
    30b4:	70 95       	com	r23
    30b6:	61 95       	neg	r22
    30b8:	7f 4f       	sbci	r23, 0xFF	; 255
    30ba:	8f 4f       	sbci	r24, 0xFF	; 255
    30bc:	9f 4f       	sbci	r25, 0xFF	; 255

000030be <.L6^B1>:
    30be:	08 95       	ret

000030c0 <__floatunsisf>:
    30c0:	e8 94       	clt
    30c2:	09 c0       	rjmp	.+18     	; 0x30d6 <.L1^B1>

000030c4 <__floatsisf>:
    30c4:	97 fb       	bst	r25, 7
    30c6:	3e f4       	brtc	.+14     	; 0x30d6 <.L1^B1>
    30c8:	90 95       	com	r25
    30ca:	80 95       	com	r24
    30cc:	70 95       	com	r23
    30ce:	61 95       	neg	r22
    30d0:	7f 4f       	sbci	r23, 0xFF	; 255
    30d2:	8f 4f       	sbci	r24, 0xFF	; 255
    30d4:	9f 4f       	sbci	r25, 0xFF	; 255

000030d6 <.L1^B1>:
    30d6:	99 23       	and	r25, r25
    30d8:	a9 f0       	breq	.+42     	; 0x3104 <.L4^B1>
    30da:	f9 2f       	mov	r31, r25
    30dc:	96 e9       	ldi	r25, 0x96	; 150
    30de:	bb 27       	eor	r27, r27

000030e0 <.L2^B1>:
    30e0:	93 95       	inc	r25
    30e2:	f6 95       	lsr	r31
    30e4:	87 95       	ror	r24
    30e6:	77 95       	ror	r23
    30e8:	67 95       	ror	r22
    30ea:	b7 95       	ror	r27
    30ec:	f1 11       	cpse	r31, r1
    30ee:	f8 cf       	rjmp	.-16     	; 0x30e0 <.L2^B1>
    30f0:	fa f4       	brpl	.+62     	; 0x3130 <.L_pack>
    30f2:	bb 0f       	add	r27, r27
    30f4:	11 f4       	brne	.+4      	; 0x30fa <.L3^B1>
    30f6:	60 ff       	sbrs	r22, 0
    30f8:	1b c0       	rjmp	.+54     	; 0x3130 <.L_pack>

000030fa <.L3^B1>:
    30fa:	6f 5f       	subi	r22, 0xFF	; 255
    30fc:	7f 4f       	sbci	r23, 0xFF	; 255
    30fe:	8f 4f       	sbci	r24, 0xFF	; 255
    3100:	9f 4f       	sbci	r25, 0xFF	; 255
    3102:	16 c0       	rjmp	.+44     	; 0x3130 <.L_pack>

00003104 <.L4^B1>:
    3104:	88 23       	and	r24, r24
    3106:	11 f0       	breq	.+4      	; 0x310c <.L5^B1>
    3108:	96 e9       	ldi	r25, 0x96	; 150
    310a:	11 c0       	rjmp	.+34     	; 0x312e <.L8^B1>

0000310c <.L5^B1>:
    310c:	77 23       	and	r23, r23
    310e:	21 f0       	breq	.+8      	; 0x3118 <.L6^B1>
    3110:	9e e8       	ldi	r25, 0x8E	; 142
    3112:	87 2f       	mov	r24, r23
    3114:	76 2f       	mov	r23, r22
    3116:	05 c0       	rjmp	.+10     	; 0x3122 <.L7^B1>

00003118 <.L6^B1>:
    3118:	66 23       	and	r22, r22
    311a:	71 f0       	breq	.+28     	; 0x3138 <.L9^B1>
    311c:	96 e8       	ldi	r25, 0x86	; 134
    311e:	86 2f       	mov	r24, r22
    3120:	70 e0       	ldi	r23, 0x00	; 0

00003122 <.L7^B1>:
    3122:	60 e0       	ldi	r22, 0x00	; 0
    3124:	2a f0       	brmi	.+10     	; 0x3130 <.L_pack>

00003126 <.L10^B1>:
    3126:	9a 95       	dec	r25
    3128:	66 0f       	add	r22, r22
    312a:	77 1f       	adc	r23, r23
    312c:	88 1f       	adc	r24, r24

0000312e <.L8^B1>:
    312e:	da f7       	brpl	.-10     	; 0x3126 <.L10^B1>

00003130 <.L_pack>:
    3130:	88 0f       	add	r24, r24
    3132:	96 95       	lsr	r25
    3134:	87 95       	ror	r24
    3136:	97 f9       	bld	r25, 7

00003138 <.L9^B1>:
    3138:	08 95       	ret

0000313a <__fp_cmp>:
    313a:	99 0f       	add	r25, r25
    313c:	00 08       	sbc	r0, r0
    313e:	55 0f       	add	r21, r21
    3140:	aa 0b       	sbc	r26, r26
    3142:	e0 e8       	ldi	r30, 0x80	; 128
    3144:	fe ef       	ldi	r31, 0xFE	; 254
    3146:	16 16       	cp	r1, r22
    3148:	17 06       	cpc	r1, r23
    314a:	e8 07       	cpc	r30, r24
    314c:	f9 07       	cpc	r31, r25
    314e:	c0 f0       	brcs	.+48     	; 0x3180 <.L9^B1>
    3150:	12 16       	cp	r1, r18
    3152:	13 06       	cpc	r1, r19
    3154:	e4 07       	cpc	r30, r20
    3156:	f5 07       	cpc	r31, r21
    3158:	98 f0       	brcs	.+38     	; 0x3180 <.L9^B1>
    315a:	62 1b       	sub	r22, r18
    315c:	73 0b       	sbc	r23, r19
    315e:	84 0b       	sbc	r24, r20
    3160:	95 0b       	sbc	r25, r21
    3162:	39 f4       	brne	.+14     	; 0x3172 <.L1^B1>
    3164:	0a 26       	eor	r0, r26
    3166:	61 f0       	breq	.+24     	; 0x3180 <.L9^B1>
    3168:	23 2b       	or	r18, r19
    316a:	24 2b       	or	r18, r20
    316c:	25 2b       	or	r18, r21
    316e:	21 f4       	brne	.+8      	; 0x3178 <.L2^B1>
    3170:	08 95       	ret

00003172 <.L1^B1>:
    3172:	0a 26       	eor	r0, r26
    3174:	09 f4       	brne	.+2      	; 0x3178 <.L2^B1>
    3176:	a1 40       	sbci	r26, 0x01	; 1

00003178 <.L2^B1>:
    3178:	a6 95       	lsr	r26
    317a:	8f ef       	ldi	r24, 0xFF	; 255
    317c:	81 1d       	adc	r24, r1
    317e:	81 1d       	adc	r24, r1

00003180 <.L9^B1>:
    3180:	08 95       	ret

00003182 <__fp_inf>:
    3182:	97 f9       	bld	r25, 7
    3184:	9f 67       	ori	r25, 0x7F	; 127
    3186:	80 e8       	ldi	r24, 0x80	; 128
    3188:	70 e0       	ldi	r23, 0x00	; 0
    318a:	60 e0       	ldi	r22, 0x00	; 0
    318c:	08 95       	ret

0000318e <__fp_nan>:
    318e:	9f ef       	ldi	r25, 0xFF	; 255
    3190:	80 ec       	ldi	r24, 0xC0	; 192
    3192:	08 95       	ret

00003194 <__fp_pscA>:
    3194:	00 24       	eor	r0, r0
    3196:	0a 94       	dec	r0
    3198:	16 16       	cp	r1, r22
    319a:	17 06       	cpc	r1, r23
    319c:	18 06       	cpc	r1, r24
    319e:	09 06       	cpc	r0, r25
    31a0:	08 95       	ret

000031a2 <__fp_pscB>:
    31a2:	00 24       	eor	r0, r0
    31a4:	0a 94       	dec	r0
    31a6:	12 16       	cp	r1, r18
    31a8:	13 06       	cpc	r1, r19
    31aa:	14 06       	cpc	r1, r20
    31ac:	05 06       	cpc	r0, r21
    31ae:	08 95       	ret

000031b0 <__fp_round>:
    31b0:	09 2e       	mov	r0, r25
    31b2:	03 94       	inc	r0
    31b4:	00 0c       	add	r0, r0
    31b6:	11 f4       	brne	.+4      	; 0x31bc <.L1^B1>
    31b8:	88 23       	and	r24, r24
    31ba:	52 f0       	brmi	.+20     	; 0x31d0 <.L3^B1>

000031bc <.L1^B1>:
    31bc:	bb 0f       	add	r27, r27
    31be:	40 f4       	brcc	.+16     	; 0x31d0 <.L3^B1>
    31c0:	bf 2b       	or	r27, r31
    31c2:	11 f4       	brne	.+4      	; 0x31c8 <.L2^B1>
    31c4:	60 ff       	sbrs	r22, 0
    31c6:	04 c0       	rjmp	.+8      	; 0x31d0 <.L3^B1>

000031c8 <.L2^B1>:
    31c8:	6f 5f       	subi	r22, 0xFF	; 255
    31ca:	7f 4f       	sbci	r23, 0xFF	; 255
    31cc:	8f 4f       	sbci	r24, 0xFF	; 255
    31ce:	9f 4f       	sbci	r25, 0xFF	; 255

000031d0 <.L3^B1>:
    31d0:	08 95       	ret

000031d2 <__fp_split3>:
    31d2:	57 fd       	sbrc	r21, 7
    31d4:	90 58       	subi	r25, 0x80	; 128
    31d6:	44 0f       	add	r20, r20
    31d8:	55 1f       	adc	r21, r21
    31da:	59 f0       	breq	.+22     	; 0x31f2 <.L4^B1>
    31dc:	5f 3f       	cpi	r21, 0xFF	; 255
    31de:	71 f0       	breq	.+28     	; 0x31fc <.L5^B1>

000031e0 <.L1^B1>:
    31e0:	47 95       	ror	r20

000031e2 <__fp_splitA>:
    31e2:	88 0f       	add	r24, r24
    31e4:	97 fb       	bst	r25, 7
    31e6:	99 1f       	adc	r25, r25
    31e8:	61 f0       	breq	.+24     	; 0x3202 <.L6^B1>
    31ea:	9f 3f       	cpi	r25, 0xFF	; 255
    31ec:	79 f0       	breq	.+30     	; 0x320c <.L7^B1>

000031ee <.L3^B1>:
    31ee:	87 95       	ror	r24
    31f0:	08 95       	ret

000031f2 <.L4^B1>:
    31f2:	12 16       	cp	r1, r18
    31f4:	13 06       	cpc	r1, r19
    31f6:	14 06       	cpc	r1, r20
    31f8:	55 1f       	adc	r21, r21
    31fa:	f2 cf       	rjmp	.-28     	; 0x31e0 <.L1^B1>

000031fc <.L5^B1>:
    31fc:	46 95       	lsr	r20
    31fe:	f1 df       	rcall	.-30     	; 0x31e2 <__fp_splitA>
    3200:	08 c0       	rjmp	.+16     	; 0x3212 <.L8^B1>

00003202 <.L6^B1>:
    3202:	16 16       	cp	r1, r22
    3204:	17 06       	cpc	r1, r23
    3206:	18 06       	cpc	r1, r24
    3208:	99 1f       	adc	r25, r25
    320a:	f1 cf       	rjmp	.-30     	; 0x31ee <.L3^B1>

0000320c <.L7^B1>:
    320c:	86 95       	lsr	r24
    320e:	71 05       	cpc	r23, r1
    3210:	61 05       	cpc	r22, r1

00003212 <.L8^B1>:
    3212:	08 94       	sec
    3214:	08 95       	ret

00003216 <__fp_zero>:
    3216:	e8 94       	clt

00003218 <__fp_szero>:
    3218:	bb 27       	eor	r27, r27
    321a:	66 27       	eor	r22, r22
    321c:	77 27       	eor	r23, r23
    321e:	cb 01       	movw	r24, r22
    3220:	97 f9       	bld	r25, 7
    3222:	08 95       	ret

00003224 <__gesf2>:
    3224:	0e 94 9d 18 	call	0x313a	; 0x313a <__fp_cmp>
    3228:	08 f4       	brcc	.+2      	; 0x322c <.L1^B1>
    322a:	8f ef       	ldi	r24, 0xFF	; 255

0000322c <.L1^B1>:
    322c:	08 95       	ret

0000322e <__mulsf3>:
    322e:	0e 94 2a 19 	call	0x3254	; 0x3254 <__mulsf3x>
    3232:	0c 94 d8 18 	jmp	0x31b0	; 0x31b0 <__fp_round>

00003236 <.L^B1>:
    3236:	0e 94 ca 18 	call	0x3194	; 0x3194 <__fp_pscA>
    323a:	38 f0       	brcs	.+14     	; 0x324a <.L1^B1>
    323c:	0e 94 d1 18 	call	0x31a2	; 0x31a2 <__fp_pscB>
    3240:	20 f0       	brcs	.+8      	; 0x324a <.L1^B1>
    3242:	95 23       	and	r25, r21
    3244:	11 f0       	breq	.+4      	; 0x324a <.L1^B1>
    3246:	0c 94 c1 18 	jmp	0x3182	; 0x3182 <__fp_inf>

0000324a <.L1^B1>:
    324a:	0c 94 c7 18 	jmp	0x318e	; 0x318e <__fp_nan>

0000324e <.L2^B1>:
    324e:	11 24       	eor	r1, r1
    3250:	0c 94 0c 19 	jmp	0x3218	; 0x3218 <__fp_szero>

00003254 <__mulsf3x>:
    3254:	0e 94 e9 18 	call	0x31d2	; 0x31d2 <__fp_split3>
    3258:	70 f3       	brcs	.-36     	; 0x3236 <.L^B1>

0000325a <__mulsf3_pse>:
    325a:	95 9f       	mul	r25, r21
    325c:	c1 f3       	breq	.-16     	; 0x324e <.L2^B1>
    325e:	95 0f       	add	r25, r21
    3260:	50 e0       	ldi	r21, 0x00	; 0
    3262:	55 1f       	adc	r21, r21
    3264:	62 9f       	mul	r22, r18
    3266:	f0 01       	movw	r30, r0
    3268:	72 9f       	mul	r23, r18
    326a:	bb 27       	eor	r27, r27
    326c:	f0 0d       	add	r31, r0
    326e:	b1 1d       	adc	r27, r1
    3270:	63 9f       	mul	r22, r19
    3272:	aa 27       	eor	r26, r26
    3274:	f0 0d       	add	r31, r0
    3276:	b1 1d       	adc	r27, r1
    3278:	aa 1f       	adc	r26, r26
    327a:	64 9f       	mul	r22, r20
    327c:	66 27       	eor	r22, r22
    327e:	b0 0d       	add	r27, r0
    3280:	a1 1d       	adc	r26, r1
    3282:	66 1f       	adc	r22, r22
    3284:	82 9f       	mul	r24, r18
    3286:	22 27       	eor	r18, r18
    3288:	b0 0d       	add	r27, r0
    328a:	a1 1d       	adc	r26, r1
    328c:	62 1f       	adc	r22, r18
    328e:	73 9f       	mul	r23, r19
    3290:	b0 0d       	add	r27, r0
    3292:	a1 1d       	adc	r26, r1
    3294:	62 1f       	adc	r22, r18
    3296:	83 9f       	mul	r24, r19
    3298:	a0 0d       	add	r26, r0
    329a:	61 1d       	adc	r22, r1
    329c:	22 1f       	adc	r18, r18
    329e:	74 9f       	mul	r23, r20
    32a0:	33 27       	eor	r19, r19
    32a2:	a0 0d       	add	r26, r0
    32a4:	61 1d       	adc	r22, r1
    32a6:	23 1f       	adc	r18, r19
    32a8:	84 9f       	mul	r24, r20
    32aa:	60 0d       	add	r22, r0
    32ac:	21 1d       	adc	r18, r1
    32ae:	82 2f       	mov	r24, r18
    32b0:	76 2f       	mov	r23, r22
    32b2:	6a 2f       	mov	r22, r26
    32b4:	11 24       	eor	r1, r1
    32b6:	9f 57       	subi	r25, 0x7F	; 127
    32b8:	50 40       	sbci	r21, 0x00	; 0
    32ba:	9a f0       	brmi	.+38     	; 0x32e2 <.L13^B1>
    32bc:	f1 f0       	breq	.+60     	; 0x32fa <.L15^B1>

000032be <.L10^B1>:
    32be:	88 23       	and	r24, r24
    32c0:	4a f0       	brmi	.+18     	; 0x32d4 <.L11^B1>
    32c2:	ee 0f       	add	r30, r30
    32c4:	ff 1f       	adc	r31, r31
    32c6:	bb 1f       	adc	r27, r27
    32c8:	66 1f       	adc	r22, r22
    32ca:	77 1f       	adc	r23, r23
    32cc:	88 1f       	adc	r24, r24
    32ce:	91 50       	subi	r25, 0x01	; 1
    32d0:	50 40       	sbci	r21, 0x00	; 0
    32d2:	a9 f7       	brne	.-22     	; 0x32be <.L10^B1>

000032d4 <.L11^B1>:
    32d4:	9e 3f       	cpi	r25, 0xFE	; 254
    32d6:	51 05       	cpc	r21, r1
    32d8:	80 f0       	brcs	.+32     	; 0x32fa <.L15^B1>
    32da:	0c 94 c1 18 	jmp	0x3182	; 0x3182 <__fp_inf>

000032de <.L12^B1>:
    32de:	0c 94 0c 19 	jmp	0x3218	; 0x3218 <__fp_szero>

000032e2 <.L13^B1>:
    32e2:	5f 3f       	cpi	r21, 0xFF	; 255
    32e4:	e4 f3       	brlt	.-8      	; 0x32de <.L12^B1>
    32e6:	98 3e       	cpi	r25, 0xE8	; 232
    32e8:	d4 f3       	brlt	.-12     	; 0x32de <.L12^B1>

000032ea <.L14^B1>:
    32ea:	86 95       	lsr	r24
    32ec:	77 95       	ror	r23
    32ee:	67 95       	ror	r22
    32f0:	b7 95       	ror	r27
    32f2:	f7 95       	ror	r31
    32f4:	e7 95       	ror	r30
    32f6:	9f 5f       	subi	r25, 0xFF	; 255
    32f8:	c1 f7       	brne	.-16     	; 0x32ea <.L14^B1>

000032fa <.L15^B1>:
    32fa:	fe 2b       	or	r31, r30
    32fc:	88 0f       	add	r24, r24
    32fe:	91 1d       	adc	r25, r1
    3300:	96 95       	lsr	r25
    3302:	87 95       	ror	r24
    3304:	97 f9       	bld	r25, 7
    3306:	08 95       	ret

00003308 <_exit>:
    3308:	f8 94       	cli

0000330a <__stop_program>:
    330a:	ff cf       	rjmp	.-2      	; 0x330a <__stop_program>
